(imatplotlib.font_manager
FontManager
p1
(dp2
S'afm_lookup_cache'
p3
(dp4
sS'ttflist'
p5
(lp6
ccopy_reg
_reconstructor
p7
(cmatplotlib.font_manager
FontEntry
p8
c__builtin__
object
p9
NtRp10
(dp11
S'style'
p12
S'normal'
p13
sS'name'
p14
S'Bitstream Vera Sans Mono'
p15
sS'weight'
p16
I400
sS'stretch'
p17
g13
sS'variant'
p18
g13
sS'fname'
p19
S'/usr/local/lib/python2.7/site-packages/matplotlib/mpl-data/fonts/ttf/VeraMono.ttf'
p20
sS'size'
p21
S'scalable'
p22
sbag7
(g8
g9
NtRp23
(dp24
g12
g13
sg14
S'cmr10'
p25
sg16
I400
sg17
g13
sg18
g13
sg19
S'/usr/local/lib/python2.7/site-packages/matplotlib/mpl-data/fonts/ttf/cmr10.ttf'
p26
sg21
g22
sbag7
(g8
g9
NtRp27
(dp28
g12
g13
sg14
S'STIXSizeFourSym'
p29
sg16
I400
sg17
g13
sg18
g13
sg19
S'/usr/local/lib/python2.7/site-packages/matplotlib/mpl-data/fonts/ttf/STIXSizFourSymReg.ttf'
p30
sg21
g22
sbag7
(g8
g9
NtRp31
(dp32
g12
g13
sg14
S'STIXSizeTwoSym'
p33
sg16
I400
sg17
g13
sg18
g13
sg19
S'/usr/local/lib/python2.7/site-packages/matplotlib/mpl-data/fonts/ttf/STIXSizTwoSymReg.ttf'
p34
sg21
g22
sbag7
(g8
g9
NtRp35
(dp36
g12
g13
sg14
S'STIXSizeThreeSym'
p37
sg16
I700
sg17
g13
sg18
g13
sg19
S'/usr/local/lib/python2.7/site-packages/matplotlib/mpl-data/fonts/ttf/STIXSizThreeSymBol.ttf'
p38
sg21
g22
sbag7
(g8
g9
NtRp39
(dp40
g12
S'italic'
p41
sg14
S'STIXGeneral'
p42
sg16
I700
sg17
g13
sg18
g13
sg19
S'/usr/local/lib/python2.7/site-packages/matplotlib/mpl-data/fonts/ttf/STIXGeneralBolIta.ttf'
p43
sg21
g22
sbag7
(g8
g9
NtRp44
(dp45
g12
S'oblique'
p46
sg14
S'Bitstream Vera Sans'
p47
sg16
I700
sg17
g13
sg18
g13
sg19
S'/usr/local/lib/python2.7/site-packages/matplotlib/mpl-data/fonts/ttf/VeraBI.ttf'
p48
sg21
g22
sbag7
(g8
g9
NtRp49
(dp50
g12
g13
sg14
S'cmtt10'
p51
sg16
I400
sg17
g13
sg18
g13
sg19
S'/usr/local/lib/python2.7/site-packages/matplotlib/mpl-data/fonts/ttf/cmtt10.ttf'
p52
sg21
g22
sbag7
(g8
g9
NtRp53
(dp54
g12
g13
sg14
S'STIXSizeTwoSym'
p55
sg16
I700
sg17
g13
sg18
g13
sg19
S'/usr/local/lib/python2.7/site-packages/matplotlib/mpl-data/fonts/ttf/STIXSizTwoSymBol.ttf'
p56
sg21
g22
sbag7
(g8
g9
NtRp57
(dp58
g12
g13
sg14
S'STIXGeneral'
p59
sg16
I400
sg17
g13
sg18
g13
sg19
S'/usr/local/lib/python2.7/site-packages/matplotlib/mpl-data/fonts/ttf/STIXGeneral.ttf'
p60
sg21
g22
sbag7
(g8
g9
NtRp61
(dp62
g12
g13
sg14
S'cmmi10'
p63
sg16
I400
sg17
g13
sg18
g13
sg19
S'/usr/local/lib/python2.7/site-packages/matplotlib/mpl-data/fonts/ttf/cmmi10.ttf'
p64
sg21
g22
sbag7
(g8
g9
NtRp65
(dp66
g12
g13
sg14
S'STIXSizeOneSym'
p67
sg16
I700
sg17
g13
sg18
g13
sg19
S'/usr/local/lib/python2.7/site-packages/matplotlib/mpl-data/fonts/ttf/STIXSizOneSymBol.ttf'
p68
sg21
g22
sbag7
(g8
g9
NtRp69
(dp70
g12
g13
sg14
S'cmb10'
p71
sg16
I400
sg17
g13
sg18
g13
sg19
S'/usr/local/lib/python2.7/site-packages/matplotlib/mpl-data/fonts/ttf/cmb10.ttf'
p72
sg21
g22
sbag7
(g8
g9
NtRp73
(dp74
g12
g13
sg14
S'STIXSizeThreeSym'
p75
sg16
I400
sg17
g13
sg18
g13
sg19
S'/usr/local/lib/python2.7/site-packages/matplotlib/mpl-data/fonts/ttf/STIXSizThreeSymReg.ttf'
p76
sg21
g22
sbag7
(g8
g9
NtRp77
(dp78
g12
g13
sg14
S'STIXSizeFiveSym'
p79
sg16
I400
sg17
g13
sg18
g13
sg19
S'/usr/local/lib/python2.7/site-packages/matplotlib/mpl-data/fonts/ttf/STIXSizFiveSymReg.ttf'
p80
sg21
g22
sbag7
(g8
g9
NtRp81
(dp82
g12
g41
sg14
S'STIXGeneral'
p83
sg16
I400
sg17
g13
sg18
g13
sg19
S'/usr/local/lib/python2.7/site-packages/matplotlib/mpl-data/fonts/ttf/STIXGeneralItalic.ttf'
p84
sg21
g22
sbag7
(g8
g9
NtRp85
(dp86
g12
g13
sg14
S'Bitstream Vera Sans'
p87
sg16
I700
sg17
g13
sg18
g13
sg19
S'/usr/local/lib/python2.7/site-packages/matplotlib/mpl-data/fonts/ttf/VeraBd.ttf'
p88
sg21
g22
sbag7
(g8
g9
NtRp89
(dp90
g12
g13
sg14
S'cmss10'
p91
sg16
I400
sg17
g13
sg18
g13
sg19
S'/usr/local/lib/python2.7/site-packages/matplotlib/mpl-data/fonts/ttf/cmss10.ttf'
p92
sg21
g22
sbag7
(g8
g9
NtRp93
(dp94
g12
g13
sg14
S'Bitstream Vera Serif'
p95
sg16
I700
sg17
g13
sg18
g13
sg19
S'/usr/local/lib/python2.7/site-packages/matplotlib/mpl-data/fonts/ttf/VeraSeBd.ttf'
p96
sg21
g22
sbag7
(g8
g9
NtRp97
(dp98
g12
g46
sg14
S'Bitstream Vera Sans Mono'
p99
sg16
I700
sg17
g13
sg18
g13
sg19
S'/usr/local/lib/python2.7/site-packages/matplotlib/mpl-data/fonts/ttf/VeraMoBI.ttf'
p100
sg21
g22
sbag7
(g8
g9
NtRp101
(dp102
g12
g13
sg14
S'Bitstream Vera Sans Mono'
p103
sg16
I700
sg17
g13
sg18
g13
sg19
S'/usr/local/lib/python2.7/site-packages/matplotlib/mpl-data/fonts/ttf/VeraMoBd.ttf'
p104
sg21
g22
sbag7
(g8
g9
NtRp105
(dp106
g12
g46
sg14
S'Bitstream Vera Sans Mono'
p107
sg16
I400
sg17
g13
sg18
g13
sg19
S'/usr/local/lib/python2.7/site-packages/matplotlib/mpl-data/fonts/ttf/VeraMoIt.ttf'
p108
sg21
g22
sbag7
(g8
g9
NtRp109
(dp110
g12
g13
sg14
S'Bitstream Vera Sans'
p111
sg16
I400
sg17
g13
sg18
g13
sg19
S'/usr/local/lib/python2.7/site-packages/matplotlib/mpl-data/fonts/ttf/Vera.ttf'
p112
sg21
g22
sbag7
(g8
g9
NtRp113
(dp114
g12
g41
sg14
S'STIXNonUnicode'
p115
sg16
I700
sg17
g13
sg18
g13
sg19
S'/usr/local/lib/python2.7/site-packages/matplotlib/mpl-data/fonts/ttf/STIXNonUniBolIta.ttf'
p116
sg21
g22
sbag7
(g8
g9
NtRp117
(dp118
g12
g13
sg14
S'STIXNonUnicode'
p119
sg16
I700
sg17
g13
sg18
g13
sg19
S'/usr/local/lib/python2.7/site-packages/matplotlib/mpl-data/fonts/ttf/STIXNonUniBol.ttf'
p120
sg21
g22
sbag7
(g8
g9
NtRp121
(dp122
g12
g13
sg14
S'STIXSizeOneSym'
p123
sg16
I400
sg17
g13
sg18
g13
sg19
S'/usr/local/lib/python2.7/site-packages/matplotlib/mpl-data/fonts/ttf/STIXSizOneSymReg.ttf'
p124
sg21
g22
sbag7
(g8
g9
NtRp125
(dp126
g12
g13
sg14
S'STIXGeneral'
p127
sg16
I700
sg17
g13
sg18
g13
sg19
S'/usr/local/lib/python2.7/site-packages/matplotlib/mpl-data/fonts/ttf/STIXGeneralBol.ttf'
p128
sg21
g22
sbag7
(g8
g9
NtRp129
(dp130
g12
g46
sg14
S'Bitstream Vera Sans'
p131
sg16
I400
sg17
g13
sg18
g13
sg19
S'/usr/local/lib/python2.7/site-packages/matplotlib/mpl-data/fonts/ttf/VeraIt.ttf'
p132
sg21
g22
sbag7
(g8
g9
NtRp133
(dp134
g12
g13
sg14
S'STIXNonUnicode'
p135
sg16
I400
sg17
g13
sg18
g13
sg19
S'/usr/local/lib/python2.7/site-packages/matplotlib/mpl-data/fonts/ttf/STIXNonUni.ttf'
p136
sg21
g22
sbag7
(g8
g9
NtRp137
(dp138
g12
g13
sg14
S'cmex10'
p139
sg16
I400
sg17
g13
sg18
g13
sg19
S'/usr/local/lib/python2.7/site-packages/matplotlib/mpl-data/fonts/ttf/cmex10.ttf'
p140
sg21
g22
sbag7
(g8
g9
NtRp141
(dp142
g12
g13
sg14
S'cmsy10'
p143
sg16
I400
sg17
g13
sg18
g13
sg19
S'/usr/local/lib/python2.7/site-packages/matplotlib/mpl-data/fonts/ttf/cmsy10.ttf'
p144
sg21
g22
sbag7
(g8
g9
NtRp145
(dp146
g12
g41
sg14
S'STIXNonUnicode'
p147
sg16
I400
sg17
g13
sg18
g13
sg19
S'/usr/local/lib/python2.7/site-packages/matplotlib/mpl-data/fonts/ttf/STIXNonUniIta.ttf'
p148
sg21
g22
sbag7
(g8
g9
NtRp149
(dp150
g12
g13
sg14
S'STIXSizeFourSym'
p151
sg16
I700
sg17
g13
sg18
g13
sg19
S'/usr/local/lib/python2.7/site-packages/matplotlib/mpl-data/fonts/ttf/STIXSizFourSymBol.ttf'
p152
sg21
g22
sbag7
(g8
g9
NtRp153
(dp154
g12
g13
sg14
S'Bitstream Vera Serif'
p155
sg16
I400
sg17
g13
sg18
g13
sg19
S'/usr/local/lib/python2.7/site-packages/matplotlib/mpl-data/fonts/ttf/VeraSe.ttf'
p156
sg21
g22
sbag7
(g8
g9
NtRp157
(dp158
g12
g13
sg14
S'Serto Mardin'
p159
sg16
I700
sg17
g13
sg18
g13
sg19
S'/usr/X11R6/lib/X11/fonts/OTF/SyrCOMMardinBold.otf'
p160
sg21
g22
sbag7
(g8
g9
NtRp161
(dp162
g12
g41
sg14
S'Trebuchet MS'
p163
sg16
I400
sg17
g13
sg18
g13
sg19
S'/Library/Fonts/Trebuchet MS Italic.ttf'
p164
sg21
g22
sbag7
(g8
g9
NtRp165
(dp166
g12
g13
sg14
S'Mshtakan'
p167
sg16
I400
sg17
g13
sg18
g13
sg19
S'/Library/Fonts/MshtakanRegular.ttf'
p168
sg21
g22
sbag7
(g8
g9
NtRp169
(dp170
g12
g41
sg14
S'Myriad Pro'
p171
sg16
I400
sg17
S'condensed'
p172
sg18
g13
sg19
S'/Library/Fonts/MyriadPro-CondIt.otf'
p173
sg21
g22
sbag7
(g8
g9
NtRp174
(dp175
g12
g13
sg14
S'Fontin Sans'
p176
sg16
I400
sg17
g13
sg18
g13
sg19
S'/Users/andrea/Library/Fonts/Fontin_Sans_SC_45b.otf'
p177
sg21
g22
sbag7
(g8
g9
NtRp178
(dp179
g12
g13
sg14
S'Serto Urhoy'
p180
sg16
I400
sg17
g13
sg18
g13
sg19
S'/usr/X11/lib/X11/fonts/OTF/SyrCOMUrhoy.otf'
p181
sg21
g22
sbag7
(g8
g9
NtRp182
(dp183
g12
g13
sg14
S'Poplar Std'
p184
sg16
I900
sg17
g13
sg18
g13
sg19
S'/Library/Fonts/PoplarStd.otf'
p185
sg21
g22
sbag7
(g8
g9
NtRp186
(dp187
g12
g13
sg14
S'Arno Pro'
p188
sg16
I700
sg17
g13
sg18
g13
sg19
S'/Library/Fonts/ArnoPro-SmbdSubhead.otf'
p189
sg21
g22
sbag7
(g8
g9
NtRp190
(dp191
g12
g41
sg14
S'Liberation Mono'
p192
sg16
I400
sg17
g13
sg18
g13
sg19
S'/Users/andrea/.fonts/LiberationMono_Italic.ttf'
p193
sg21
g22
sbag7
(g8
g9
NtRp194
(dp195
g12
g13
sg14
S'Kozuka Gothic Pr6N'
p196
sg16
I400
sg17
g13
sg18
g13
sg19
S'/Library/Fonts/KozGoPr6N-ExtraLight.otf'
p197
sg21
g22
sbag7
(g8
g9
NtRp198
(dp199
g12
g41
sg14
S'Arno Pro'
p200
sg16
I700
sg17
g13
sg18
g13
sg19
S'/Library/Fonts/ArnoPro-SmbdItalicSubhead.otf'
p201
sg21
g22
sbag7
(g8
g9
NtRp202
(dp203
g12
g46
sg14
S'TradeGothic'
p204
sg16
I700
sg17
g172
sg18
g13
sg19
S'/Users/andrea/Library/Fonts/TradeGotBolConTweObl.otf'
p205
sg21
g22
sbag7
(g8
g9
NtRp206
(dp207
g12
g41
sg14
S'Gill Sans MT'
p208
sg16
I400
sg17
g13
sg18
g13
sg19
S'/Library/Fonts/Microsoft/Gill Sans MT Italic.ttf'
p209
sg21
g22
sbag7
(g8
g9
NtRp210
(dp211
g12
g13
sg14
S'Times New Roman'
p212
sg16
I500
sg17
g13
sg18
g13
sg19
S'/Library/Fonts/Times New Roman.ttf'
p213
sg21
g22
sbag7
(g8
g9
NtRp214
(dp215
g12
g13
sg14
S'Delicious Heavy'
p216
sg16
I800
sg17
g13
sg18
g13
sg19
S'/Users/andrea/Library/Fonts/Delicious-Heavy.otf'
p217
sg21
g22
sbag7
(g8
g9
NtRp218
(dp219
g12
g13
sg14
S'Aladdin'
p220
sg16
I400
sg17
g13
sg18
g13
sg19
S'/Users/andrea/Library/Fonts/ALADDN.TTF'
p221
sg21
g22
sbag7
(g8
g9
NtRp222
(dp223
g12
g41
sg14
S'New Peninim MT'
p224
sg16
I700
sg17
g13
sg18
g13
sg19
S'/Library/Fonts/NewPeninimMTBoldInclined.ttf'
p225
sg21
g22
sbag7
(g8
g9
NtRp226
(dp227
g12
g13
sg14
S'AW Conqueror Inline'
p228
sg16
I400
sg17
g13
sg18
g13
sg19
S'/Users/andrea/Library/Fonts/AWConquerorInline-Regular.otf'
p229
sg21
g22
sbag7
(g8
g9
NtRp230
(dp231
g12
g13
sg14
S'Latin725 BT'
p232
sg16
I500
sg17
g13
sg18
g13
sg19
S'/Users/andrea/Library/Fonts/Lat725Rm.ttf'
p233
sg21
g22
sbag7
(g8
g9
NtRp234
(dp235
g12
g13
sg14
S'AppleMyungjo'
p236
sg16
I400
sg17
g13
sg18
g13
sg19
S'/Library/Fonts/AppleMyungjo.ttf'
p237
sg21
g22
sbag7
(g8
g9
NtRp238
(dp239
g12
g41
sg14
S'Arno Pro'
p240
sg16
I700
sg17
g13
sg18
g13
sg19
S'/Library/Fonts/ArnoPro-BoldItalic.otf'
p241
sg21
g22
sbag7
(g8
g9
NtRp242
(dp243
g12
g13
sg14
S'Osaka'
p244
sg16
I400
sg17
g13
sg18
g13
sg19
S'/Library/Fonts/Osaka.ttf'
p245
sg21
g22
sbag7
(g8
g9
NtRp246
(dp247
g12
g13
sg14
S'Liberation Sans'
p248
sg16
I400
sg17
g13
sg18
g13
sg19
S'/Users/andrea/.fonts/LiberationSans_Regular.ttf'
p249
sg21
g22
sbag7
(g8
g9
NtRp250
(dp251
g12
g41
sg14
S'Liberation Serif'
p252
sg16
I700
sg17
g13
sg18
g13
sg19
S'/Users/andrea/.fonts/LiberationSerif_BoldItalic.ttf'
p253
sg21
g22
sbag7
(g8
g9
NtRp254
(dp255
g12
g13
sg14
S'Latin Modern Sans'
p256
sg16
I400
sg17
g13
sg18
g13
sg19
S'/Library/Fonts/Latin Modern/lmsans12-regular.otf'
p257
sg21
g22
sbag7
(g8
g9
NtRp258
(dp259
g12
g13
sg14
S'STIXSizeThreeSym'
p260
sg16
I700
sg17
g13
sg18
g13
sg19
S'/Library/Fonts/STIXSizThreeSymBol.otf'
p261
sg21
g22
sbag7
(g8
g9
NtRp262
(dp263
g12
g13
sg14
S'Symbol'
p264
sg16
I400
sg17
g13
sg18
g13
sg19
S'/System/Library/Fonts/Symbol.ttf'
p265
sg21
g22
sbag7
(g8
g9
NtRp266
(dp267
g12
g13
sg14
S'East Syriac Ctesiphon'
p268
sg16
I400
sg17
g13
sg18
g13
sg19
S'/usr/X11/lib/X11/fonts/OTF/SyrCOMCtesiphon.otf'
p269
sg21
g22
sbag7
(g8
g9
NtRp270
(dp271
g12
g13
sg14
S'Bell Gothic Std'
p272
sg16
I900
sg17
g13
sg18
g13
sg19
S'/Library/Fonts/BellGothicStd-Black.otf'
p273
sg21
g22
sbag7
(g8
g9
NtRp274
(dp275
g12
g13
sg14
S'Al Bayan'
p276
sg16
I400
sg17
g13
sg18
g13
sg19
S'/Library/Fonts/AlBayan.ttf'
p277
sg21
g22
sbag7
(g8
g9
NtRp278
(dp279
g12
g13
sg14
S'Candara'
p280
sg16
I700
sg17
g13
sg18
g13
sg19
S'/Library/Fonts/Microsoft/Candara Bold.ttf'
p281
sg21
g22
sbag7
(g8
g9
NtRp282
(dp283
g12
g13
sg14
S'Tw Cen MT'
p284
sg16
I400
sg17
g13
sg18
g13
sg19
S'/Library/Fonts/Microsoft/Tw Cen MT.ttf'
p285
sg21
g22
sbag7
(g8
g9
NtRp286
(dp287
g12
g13
sg14
S'Latin Modern Roman Slanted'
p288
sg16
I400
sg17
g13
sg18
g13
sg19
S'/Library/Fonts/Latin Modern/lmromanslant12-regular.otf'
p289
sg21
g22
sbag7
(g8
g9
NtRp290
(dp291
g12
g41
sg14
S'Myriad Pro'
p292
sg16
I400
sg17
g13
sg18
g13
sg19
S'/Library/Fonts/MyriadPro-It.otf'
p293
sg21
g22
sbag7
(g8
g9
NtRp294
(dp295
g12
g13
sg14
S'Luxi Serif'
p296
sg16
I700
sg17
g13
sg18
g13
sg19
S'/usr/X11R6/lib/X11/fonts/TTF/luxirb.ttf'
p297
sg21
g22
sbag7
(g8
g9
NtRp298
(dp299
g12
g13
sg14
S'Centaur'
p300
sg16
I400
sg17
g13
sg18
g13
sg19
S'/Users/andrea/Library/Fonts/CENTAUR.TTF'
p301
sg21
g22
sbag7
(g8
g9
NtRp302
(dp303
g12
g41
sg14
S'Palatino Linotype'
p304
sg16
I400
sg17
g13
sg18
g13
sg19
S'/Users/andrea/Library/Fonts/palai.ttf'
p305
sg21
g22
sbag7
(g8
g9
NtRp306
(dp307
g12
g13
sg14
S'Menlo for Powerline for Powerline'
p308
sg16
I400
sg17
g13
sg18
g13
sg19
S'/Users/andrea/Library/Fonts/Menlo-Powerline-2-Powerline.otf'
p309
sg21
g22
sbag7
(g8
g9
NtRp310
(dp311
g12
g13
sg14
S'TeX Gyre Adventor'
p312
sg16
I400
sg17
g13
sg18
g13
sg19
S'/Library/Fonts/TeX Gyre/texgyreadventor-regular.otf'
p313
sg21
g22
sbag7
(g8
g9
NtRp314
(dp315
g12
g41
sg14
S'Minion Pro'
p316
sg16
I400
sg17
g13
sg18
g13
sg19
S'/Library/Fonts/MinionPro-It.otf'
p317
sg21
g22
sbag7
(g8
g9
NtRp318
(dp319
g12
g13
sg14
S'Latin Modern Roman'
p320
sg16
I400
sg17
g13
sg18
g13
sg19
S'/Library/Fonts/Latin Modern/lmroman7-regular.otf'
p321
sg21
g22
sbag7
(g8
g9
NtRp322
(dp323
g12
g13
sg14
S'Gentium'
p324
sg16
I400
sg17
g13
sg18
g13
sg19
S'/Users/andrea/Library/Fonts/GenR102.TTF'
p325
sg21
g22
sbag7
(g8
g9
NtRp326
(dp327
g12
g41
sg14
S'Arno Pro'
p328
sg16
I400
sg17
g13
sg18
g13
sg19
S'/Library/Fonts/ArnoPro-ItalicSmText.otf'
p329
sg21
g22
sbag7
(g8
g9
NtRp330
(dp331
g12
g13
sg14
S'TradeGothic'
p332
sg16
I400
sg17
g13
sg18
g13
sg19
S'/Users/andrea/Library/Fonts/TradeGot.otf'
p333
sg21
g22
sbag7
(g8
g9
NtRp334
(dp335
g12
g13
sg14
S'Diavlo'
p336
sg16
I700
sg17
g13
sg18
g13
sg19
S'/Users/andrea/Library/Fonts/Diavlo_BOLD_II_37.otf'
p337
sg21
g22
sbag7
(g8
g9
NtRp338
(dp339
g12
g13
sg14
S'Nadeem'
p340
sg16
I400
sg17
g13
sg18
g13
sg19
S'/Library/Fonts/Nadeem.ttf'
p341
sg21
g22
sbag7
(g8
g9
NtRp342
(dp343
g12
g13
sg14
S'Liberation Mono'
p344
sg16
I700
sg17
g13
sg18
g13
sg19
S'/Users/andrea/.fonts/LiberationMono_Bold.ttf'
p345
sg21
g22
sbag7
(g8
g9
NtRp346
(dp347
g12
g13
sg14
S'Al Bayan'
p348
sg16
I700
sg17
g13
sg18
g13
sg19
S'/Library/Fonts/AlBayanBold.ttf'
p349
sg21
g22
sbag7
(g8
g9
NtRp350
(dp351
g12
g13
sg14
S'Kozuka Gothic Pr6N'
p352
sg16
I400
sg17
g13
sg18
g13
sg19
S'/Library/Fonts/KozGoPr6N-Regular.otf'
p353
sg21
g22
sbag7
(g8
g9
NtRp354
(dp355
g12
g41
sg14
S'Arial'
p356
sg16
I700
sg17
g13
sg18
g13
sg19
S'/Library/Fonts/Arial Bold Italic.ttf'
p357
sg21
g22
sbag7
(g8
g9
NtRp358
(dp359
g12
g13
sg14
S'Tekton Pro'
p360
sg16
I700
sg17
g13
sg18
g13
sg19
S'/Library/Fonts/TektonPro-Bold.otf'
p361
sg21
g22
sbag7
(g8
g9
NtRp362
(dp363
g12
g41
sg14
S'Liberation Sans'
p364
sg16
I700
sg17
g13
sg18
g13
sg19
S'/Users/andrea/.fonts/LiberationSans_BoldItalic.ttf'
p365
sg21
g22
sbag7
(g8
g9
NtRp366
(dp367
g12
g13
sg14
S'TeX Gyre Bonum'
p368
sg16
I400
sg17
g13
sg18
g13
sg19
S'/Library/Fonts/TeX Gyre/texgyrebonum-regular.otf'
p369
sg21
g22
sbag7
(g8
g9
NtRp370
(dp371
g12
g13
sg14
S'Serto Batnan'
p372
sg16
I400
sg17
g13
sg18
g13
sg19
S'/usr/X11/lib/X11/fonts/OTF/SyrCOMBatnan.otf'
p373
sg21
g22
sbag7
(g8
g9
NtRp374
(dp375
g12
g13
sg14
S'Mshtakan'
p376
sg16
I700
sg17
g13
sg18
g13
sg19
S'/Library/Fonts/MshtakanBold.ttf'
p377
sg21
g22
sbag7
(g8
g9
NtRp378
(dp379
g12
g41
sg14
S'Myriad Arabic'
p380
sg16
I400
sg17
g13
sg18
g13
sg19
S'/Library/Fonts/MyriadArabic-It.otf'
p381
sg21
g22
sbag7
(g8
g9
NtRp382
(dp383
g12
g41
sg14
S'Nueva Std'
p384
sg16
I400
sg17
g13
sg18
g13
sg19
S'/Library/Fonts/NuevaStd-Italic.otf'
p385
sg21
g22
sbag7
(g8
g9
NtRp386
(dp387
g12
g13
sg14
S'Arno Pro'
p388
sg16
I400
sg17
g13
sg18
g13
sg19
S'/Library/Fonts/ArnoPro-Caption.otf'
p389
sg21
g22
sbag7
(g8
g9
NtRp390
(dp391
g12
g46
sg14
S'Latin Modern Sans'
p392
sg16
I400
sg17
g13
sg18
g13
sg19
S'/Library/Fonts/Latin Modern/lmsans17-oblique.otf'
p393
sg21
g22
sbag7
(g8
g9
NtRp394
(dp395
g12
g13
sg14
S'Letter Gothic Std'
p396
sg16
I500
sg17
g13
sg18
g13
sg19
S'/Library/Fonts/LetterGothicStd.otf'
p397
sg21
g22
sbag7
(g8
g9
NtRp398
(dp399
g12
g13
sg14
S'STIXSizeFiveSym'
p400
sg16
I400
sg17
g13
sg18
g13
sg19
S'/Library/Fonts/STIXSizFiveSymReg.otf'
p401
sg21
g22
sbag7
(g8
g9
NtRp402
(dp403
g12
g13
sg14
S'East Syriac Adiabene'
p404
sg16
I400
sg17
g13
sg18
g13
sg19
S'/usr/X11/lib/X11/fonts/OTF/SyrCOMAdiabene.otf'
p405
sg21
g22
sbag7
(g8
g9
NtRp406
(dp407
g12
g13
sg14
S'Latin Modern Roman Dunhill'
p408
sg16
I400
sg17
g13
sg18
g13
sg19
S'/Library/Fonts/Latin Modern/lmromandunh10-regular.otf'
p409
sg21
g22
sbag7
(g8
g9
NtRp410
(dp411
g12
g41
sg14
S'Latin Modern Roman'
p412
sg16
I500
sg17
g13
sg18
g13
sg19
S'/Library/Fonts/Latin Modern/lmroman8-italic.otf'
p413
sg21
g22
sbag7
(g8
g9
NtRp414
(dp415
g12
g13
sg14
S'AW Conqueror Slab'
p416
sg16
I200
sg17
g13
sg18
g13
sg19
S'/Users/andrea/Library/Fonts/AWConquerorSlab-Light.otf'
p417
sg21
g22
sbag7
(g8
g9
NtRp418
(dp419
g12
g13
sg14
S'Latin Modern Mono Prop'
p420
sg16
I400
sg17
g13
sg18
g13
sg19
S'/Library/Fonts/Latin Modern/lmmonoprop10-regular.otf'
p421
sg21
g22
sbag7
(g8
g9
NtRp422
(dp423
g12
g46
sg14
S'TradeGothic'
p424
sg16
I700
sg17
g13
sg18
g13
sg19
S'/Users/andrea/Library/Fonts/TradeGotBolTwoObl.otf'
p425
sg21
g22
sbag7
(g8
g9
NtRp426
(dp427
g12
g13
sg14
S'Mensch for Powerline'
p428
sg16
I400
sg17
g13
sg18
g13
sg19
S'/Users/andrea/Library/Fonts/mensch-Powerline.otf'
p429
sg21
g22
sbag7
(g8
g9
NtRp430
(dp431
g12
g13
sg14
S'Gurmukhi MT'
p432
sg16
I400
sg17
g13
sg18
g13
sg19
S'/Library/Fonts/Gurmukhi.ttf'
p433
sg21
g22
sbag7
(g8
g9
NtRp434
(dp435
g12
g13
sg14
S'Delicious'
p436
sg16
I700
sg17
g13
sg18
g13
sg19
S'/Users/andrea/Library/Fonts/Delicious-Bold.otf'
p437
sg21
g22
sbag7
(g8
g9
NtRp438
(dp439
g12
g41
sg14
S'Anonymous Pro'
p440
sg16
I400
sg17
g13
sg18
g13
sg19
S'/Users/andrea/Library/Fonts/Anonymous Pro I.ttf'
p441
sg21
g22
sbag7
(g8
g9
NtRp442
(dp443
g12
g13
sg14
S'Apple Color Emoji'
p444
sg16
I400
sg17
g13
sg18
g13
sg19
S'/System/Library/Fonts/Apple Color Emoji.ttf'
p445
sg21
g22
sbag7
(g8
g9
NtRp446
(dp447
g12
g41
sg14
S'Cambria'
p448
sg16
I400
sg17
g13
sg18
g13
sg19
S'/Library/Fonts/Microsoft/Cambria Italic.ttf'
p449
sg21
g22
sbag7
(g8
g9
NtRp450
(dp451
g12
g46
sg14
S'Tekton Pro'
p452
sg16
I700
sg17
g13
sg18
g13
sg19
S'/Library/Fonts/TektonPro-BoldObl.otf'
p453
sg21
g22
sbag7
(g8
g9
NtRp454
(dp455
g12
g13
sg14
S'Latin Modern Roman Slanted'
p456
sg16
I400
sg17
g13
sg18
g13
sg19
S'/Library/Fonts/Latin Modern/lmromanslant8-regular.otf'
p457
sg21
g22
sbag7
(g8
g9
NtRp458
(dp459
g12
g46
sg14
S'Luxi Serif'
p460
sg16
I400
sg17
g13
sg18
g13
sg19
S'/usr/X11R6/lib/X11/fonts/TTF/luxirri.ttf'
p461
sg21
g22
sbag7
(g8
g9
NtRp462
(dp463
g12
g46
sg14
S'Latin Modern Sans Quotation'
p464
sg16
I700
sg17
g13
sg18
g13
sg19
S'/Library/Fonts/Latin Modern/lmsansquot8-boldoblique.otf'
p465
sg21
g22
sbag7
(g8
g9
NtRp466
(dp467
g12
g13
sg14
S'Adobe Myungjo Std'
p468
sg16
I400
sg17
g13
sg18
g13
sg19
S'/Library/Fonts/AdobeMyungjoStd-Medium.otf'
p469
sg21
g22
sbag7
(g8
g9
NtRp470
(dp471
g12
g13
sg14
S'Hiragino Maru Gothic Pro'
p472
sg16
I400
sg17
g13
sg18
g13
sg19
S'/Library/Fonts/\xe3\x83\x92\xe3\x83\xa9\xe3\x82\xad\xe3\x82\x99\xe3\x83\x8e\xe4\xb8\xb8\xe3\x82\xb3\xe3\x82\x99 Pro W4.otf'
p473
sg21
g22
sbag7
(g8
g9
NtRp474
(dp475
g12
g41
sg14
S'Perpetua'
p476
sg16
I700
sg17
g13
sg18
g13
sg19
S'/Library/Fonts/Microsoft/Perpetua Bold Italic.ttf'
p477
sg21
g22
sbag7
(g8
g9
NtRp478
(dp479
g12
g13
sg14
S'Adobe Gothic Std'
p480
sg16
I700
sg17
g13
sg18
g13
sg19
S'/Library/Fonts/AdobeGothicStd-Bold.otf'
p481
sg21
g22
sbag7
(g8
g9
NtRp482
(dp483
g12
g13
sg14
S'Code Light'
p484
sg16
I200
sg17
g13
sg18
g13
sg19
S'/Users/andrea/Library/Fonts/CODE Light.otf'
p485
sg21
g22
sbag7
(g8
g9
NtRp486
(dp487
g12
g13
sg14
S'Estrangelo Talada'
p488
sg16
I400
sg17
g13
sg18
g13
sg19
S'/usr/X11/lib/X11/fonts/OTF/SyrCOMTalada.otf'
p489
sg21
g22
sbag7
(g8
g9
NtRp490
(dp491
g12
g41
sg14
S'New Peninim MT'
p492
sg16
I400
sg17
g13
sg18
g13
sg19
S'/Library/Fonts/NewPeninimMTInclined.ttf'
p493
sg21
g22
sbag7
(g8
g9
NtRp494
(dp495
g12
g13
sg14
S'Verdana'
p496
sg16
I700
sg17
g13
sg18
g13
sg19
S'/Library/Fonts/Microsoft/Verdana Bold.ttf'
p497
sg21
g22
sbag7
(g8
g9
NtRp498
(dp499
g12
g13
sg14
S'Myriad Pro'
p500
sg16
I700
sg17
g13
sg18
g13
sg19
S'/Library/Fonts/MyriadPro-Semibold.otf'
p501
sg21
g22
sbag7
(g8
g9
NtRp502
(dp503
g12
g41
sg14
S'Arno Pro'
p504
sg16
I700
sg17
g13
sg18
g13
sg19
S'/Library/Fonts/ArnoPro-BoldItalicSmText.otf'
p505
sg21
g22
sbag7
(g8
g9
NtRp506
(dp507
g12
g13
sg14
S'Verdana'
p508
sg16
I400
sg17
g13
sg18
g13
sg19
S'/Library/Fonts/Microsoft/Verdana.ttf'
p509
sg21
g22
sbag7
(g8
g9
NtRp510
(dp511
g12
g13
sg14
S'Estrangelo Nisibin'
p512
sg16
I400
sg17
g13
sg18
g13
sg19
S'/usr/X11R6/lib/X11/fonts/OTF/SyrCOMNisibin.otf'
p513
sg21
g22
sbag7
(g8
g9
NtRp514
(dp515
g12
g13
sg14
S'Franklin Gothic Medium'
p516
sg16
I500
sg17
g13
sg18
g13
sg19
S'/Library/Fonts/Microsoft/Franklin Gothic Medium.ttf'
p517
sg21
g22
sbag7
(g8
g9
NtRp518
(dp519
g12
g13
sg14
S'PCMyungjo'
p520
sg16
I400
sg17
g13
sg18
g13
sg19
S'/Library/Fonts/PCmyoungjo.ttf'
p521
sg21
g22
sbag7
(g8
g9
NtRp522
(dp523
g12
g13
sg14
S'Kozuka Mincho Pr6N'
p524
sg16
I700
sg17
g13
sg18
g13
sg19
S'/Library/Fonts/KozMinPr6N-Bold.otf'
p525
sg21
g22
sbag7
(g8
g9
NtRp526
(dp527
g12
g41
sg14
S'Verdana'
p528
sg16
I700
sg17
g13
sg18
g13
sg19
S'/Library/Fonts/Verdana Bold Italic.ttf'
p529
sg21
g22
sbag7
(g8
g9
NtRp530
(dp531
g12
g46
sg14
S'Latin Modern Sans Quotation'
p532
sg16
I700
sg17
g13
sg18
g13
sg19
S'/Library/Fonts/Latin Modern/lmsansquot8-oblique.otf'
p533
sg21
g22
sbag7
(g8
g9
NtRp534
(dp535
g12
g13
sg14
S'Serto Malankara'
p536
sg16
I400
sg17
g13
sg18
g13
sg19
S'/usr/X11/lib/X11/fonts/OTF/SyrCOMMalankara.otf'
p537
sg21
g22
sbag7
(g8
g9
NtRp538
(dp539
g12
g13
sg14
S'Estrangelo Edessa'
p540
sg16
I400
sg17
g13
sg18
g13
sg19
S'/usr/X11/lib/X11/fonts/OTF/SyrCOMEdessa.otf'
p541
sg21
g22
sbag7
(g8
g9
NtRp542
(dp543
g12
g13
sg14
S'Kokonor'
p544
sg16
I400
sg17
g13
sg18
g13
sg19
S'/Library/Fonts/Kokonor.ttf'
p545
sg21
g22
sbag7
(g8
g9
NtRp546
(dp547
g12
g41
sg14
S'Adobe Devanagari'
p548
sg16
I700
sg17
g13
sg18
g13
sg19
S'/Library/Fonts/AdobeDevanagari-BoldItalic.otf'
p549
sg21
g22
sbag7
(g8
g9
NtRp550
(dp551
g12
g13
sg14
S'Apple Braille'
p552
sg16
I400
sg17
g13
sg18
g13
sg19
S'/System/Library/Fonts/Apple Braille.ttf'
p553
sg21
g22
sbag7
(g8
g9
NtRp554
(dp555
g12
g13
sg14
S'Hiragino Mincho Pro'
p556
sg16
I700
sg17
g13
sg18
g13
sg19
S'/Library/Fonts/\xe3\x83\x92\xe3\x83\xa9\xe3\x82\xad\xe3\x82\x99\xe3\x83\x8e\xe6\x98\x8e\xe6\x9c\x9d Pro W6.otf'
p557
sg21
g22
sbag7
(g8
g9
NtRp558
(dp559
g12
g13
sg14
S'Serto Batnan'
p560
sg16
I700
sg17
g13
sg18
g13
sg19
S'/usr/X11R6/lib/X11/fonts/OTF/SyrCOMBatnanBold.otf'
p561
sg21
g22
sbag7
(g8
g9
NtRp562
(dp563
g12
g13
sg14
S'Kailasa'
p564
sg16
I400
sg17
g13
sg18
g13
sg19
S'/Library/Fonts/Kailasa.ttf'
p565
sg21
g22
sbag7
(g8
g9
NtRp566
(dp567
g12
g13
sg14
S'STIXIntegralsUpSm'
p568
sg16
I400
sg17
g13
sg18
g13
sg19
S'/Users/andrea/Library/Fonts/STIXIntUpSmReg.otf'
p569
sg21
g22
sbag7
(g8
g9
NtRp570
(dp571
g12
g46
sg14
S'Latin Modern Mono Prop Light'
p572
sg16
I700
sg17
g13
sg18
g13
sg19
S'/Library/Fonts/Latin Modern/lmmonoproplt10-boldoblique.otf'
p573
sg21
g22
sbag7
(g8
g9
NtRp574
(dp575
g12
g41
sg14
S'Arno Pro'
p576
sg16
I700
sg17
g13
sg18
g13
sg19
S'/Library/Fonts/ArnoPro-SmbdItalicSmText.otf'
p577
sg21
g22
sbag7
(g8
g9
NtRp578
(dp579
g12
g13
sg14
S'Anonymous Pro'
p580
sg16
I700
sg17
g13
sg18
g13
sg19
S'/Users/andrea/Library/Fonts/Anonymous Pro B.ttf'
p581
sg21
g22
sbag7
(g8
g9
NtRp582
(dp583
g12
g41
sg14
S'STIXNonUnicode'
p584
sg16
I400
sg17
g13
sg18
g13
sg19
S'/Library/Fonts/STIXNonUniIta.otf'
p585
sg21
g22
sbag7
(g8
g9
NtRp586
(dp587
g12
g13
sg14
S'Baghdad'
p588
sg16
I400
sg17
g13
sg18
g13
sg19
S'/Library/Fonts/Baghdad.ttf'
p589
sg21
g22
sbag7
(g8
g9
NtRp590
(dp591
g12
g46
sg14
S'Luxi Serif'
p592
sg16
I700
sg17
g13
sg18
g13
sg19
S'/usr/X11/lib/X11/fonts/TTF/luxirbi.ttf'
p593
sg21
g22
sbag7
(g8
g9
NtRp594
(dp595
g12
g13
sg14
S'Tekton Pro'
p596
sg16
I700
sg17
g13
sg18
g13
sg19
S'/Library/Fonts/TektonPro-BoldExt.otf'
p597
sg21
g22
sbag7
(g8
g9
NtRp598
(dp599
g12
g41
sg14
S'Chaparral Pro'
p600
sg16
I400
sg17
g13
sg18
g13
sg19
S'/Library/Fonts/ChaparralPro-Italic.otf'
p601
sg21
g22
sbag7
(g8
g9
NtRp602
(dp603
g12
g13
sg14
S'Comic Sans MS'
p604
sg16
I700
sg17
g13
sg18
g13
sg19
S'/Library/Fonts/Comic Sans MS Bold.ttf'
p605
sg21
g22
sbag7
(g8
g9
NtRp606
(dp607
g12
g13
sg14
S'Arno Pro'
p608
sg16
I400
sg17
g13
sg18
g13
sg19
S'/Library/Fonts/ArnoPro-SmText.otf'
p609
sg21
g22
sbag7
(g8
g9
NtRp610
(dp611
g12
g13
sg14
S'Arno Pro'
p612
sg16
I700
sg17
g13
sg18
g13
sg19
S'/Library/Fonts/ArnoPro-SmbdSmText.otf'
p613
sg21
g22
sbag7
(g8
g9
NtRp614
(dp615
g12
g41
sg14
S'Constantia'
p616
sg16
I400
sg17
g13
sg18
g13
sg19
S'/Library/Fonts/Microsoft/Constantia Italic.ttf'
p617
sg21
g22
sbag7
(g8
g9
NtRp618
(dp619
g12
g13
sg14
S'Luxi Sans'
p620
sg16
I400
sg17
g13
sg18
g13
sg19
S'/usr/X11/lib/X11/fonts/TTF/luxisr.ttf'
p621
sg21
g22
sbag7
(g8
g9
NtRp622
(dp623
g12
g13
sg14
S'AW Conqueror Carved'
p624
sg16
I400
sg17
g13
sg18
g13
sg19
S'/Users/andrea/Library/Fonts/AWConquerorCarved-Two.otf'
p625
sg21
g22
sbag7
(g8
g9
NtRp626
(dp627
g12
g41
sg14
S'Adobe Garamond Pro'
p628
sg16
I700
sg17
g13
sg18
g13
sg19
S'/Library/Fonts/AGaramondPro-BoldItalic.otf'
p629
sg21
g22
sbag7
(g8
g9
NtRp630
(dp631
g12
g13
sg14
S'Estrangelo TurAbdin'
p632
sg16
I400
sg17
g13
sg18
g13
sg19
S'/usr/X11R6/lib/X11/fonts/OTF/SyrCOMTurAbdin.otf'
p633
sg21
g22
sbag7
(g8
g9
NtRp634
(dp635
g12
g13
sg14
S'Dekar'
p636
sg16
I400
sg17
g13
sg18
g13
sg19
S'/Users/andrea/Library/Fonts/Dekar.otf'
p637
sg21
g22
sbag7
(g8
g9
NtRp638
(dp639
g12
g13
sg14
S'Apple SD Gothic Neo'
p640
sg16
I700
sg17
g13
sg18
g13
sg19
S'/Library/Fonts/AppleSDGothicNeo-SemiBold.otf'
p641
sg21
g22
sbag7
(g8
g9
NtRp642
(dp643
g12
g13
sg14
S'STIXNonUnicode'
p644
sg16
I700
sg17
g13
sg18
g13
sg19
S'/Library/Fonts/STIXNonUniBol.otf'
p645
sg21
g22
sbag7
(g8
g9
NtRp646
(dp647
g12
g13
sg14
S'Webdings'
p648
sg16
I400
sg17
g13
sg18
g13
sg19
S'/Library/Fonts/Webdings.ttf'
p649
sg21
g22
sbag7
(g8
g9
NtRp650
(dp651
g12
g13
sg14
S'Apple Braille'
p652
sg16
I400
sg17
g13
sg18
g13
sg19
S'/System/Library/Fonts/Apple Braille Pinpoint 6 Dot.ttf'
p653
sg21
g22
sbag7
(g8
g9
NtRp654
(dp655
g12
g13
sg14
S'Kozuka Mincho Pr6N'
p656
sg16
I700
sg17
g13
sg18
g13
sg19
S'/Library/Fonts/KozMinPr6N-Heavy.otf'
p657
sg21
g22
sbag7
(g8
g9
NtRp658
(dp659
g12
g13
sg14
S'Kozuka Gothic Pro'
p660
sg16
I700
sg17
g13
sg18
g13
sg19
S'/Library/Fonts/KozGoPro-Heavy.otf'
p661
sg21
g22
sbag7
(g8
g9
NtRp662
(dp663
g12
g41
sg14
S'Franklin Gothic Book'
p664
sg16
I400
sg17
g13
sg18
g13
sg19
S'/Library/Fonts/Microsoft/Franklin Gothic Book Italic.ttf'
p665
sg21
g22
sbag7
(g8
g9
NtRp666
(dp667
g12
g13
sg14
S'Latin Modern Mono Prop Light'
p668
sg16
I700
sg17
g13
sg18
g13
sg19
S'/Library/Fonts/Latin Modern/lmmonoproplt10-bold.otf'
p669
sg21
g22
sbag7
(g8
g9
NtRp670
(dp671
g12
g41
sg14
S'Arno Pro'
p672
sg16
I700
sg17
g13
sg18
g13
sg19
S'/Library/Fonts/ArnoPro-SmbdItalic.otf'
p673
sg21
g22
sbag7
(g8
g9
NtRp674
(dp675
g12
g13
sg14
S'Tempus Sans ITC'
p676
sg16
I400
sg17
g13
sg18
g13
sg19
S'/Users/andrea/Library/Fonts/TEMPSITC.TTF'
p677
sg21
g22
sbag7
(g8
g9
NtRp678
(dp679
g12
g13
sg14
S'Goha-Tibeb Zemen'
p680
sg16
I400
sg17
g13
sg18
g13
sg19
S'/usr/X11R6/lib/X11/fonts/OTF/GohaTibebZemen.otf'
p681
sg21
g22
sbag7
(g8
g9
NtRp682
(dp683
g12
g41
sg14
S'Palatino Linotype'
p684
sg16
I700
sg17
g13
sg18
g13
sg19
S'/Library/Fonts/Microsoft/Palatino Linotype Bold Italic.ttf'
p685
sg21
g22
sbag7
(g8
g9
NtRp686
(dp687
g12
g41
sg14
S'Courier New'
p688
sg16
I400
sg17
g13
sg18
g13
sg19
S'/Library/Fonts/Courier New Italic.ttf'
p689
sg21
g22
sbag7
(g8
g9
NtRp690
(dp691
g12
g13
sg14
S'Meiryo'
p692
sg16
I400
sg17
g13
sg18
g13
sg19
S'/Library/Fonts/Microsoft/Meiryo.ttf'
p693
sg21
g22
sbag7
(g8
g9
NtRp694
(dp695
g12
g41
sg14
S'Minion Pro'
p696
sg16
I500
sg17
g13
sg18
g13
sg19
S'/Library/Fonts/MinionPro-MediumIt.otf'
p697
sg21
g22
sbag7
(g8
g9
NtRp698
(dp699
g12
g13
sg14
S'Kozuka Mincho Pro'
p700
sg16
I400
sg17
g13
sg18
g13
sg19
S'/Library/Fonts/KozMinPro-Regular.otf'
p701
sg21
g22
sbag7
(g8
g9
NtRp702
(dp703
g12
g13
sg14
S'Kai'
p704
sg16
I400
sg17
g13
sg18
g13
sg19
S'/Library/Fonts/Kai.ttf'
p705
sg21
g22
sbag7
(g8
g9
NtRp706
(dp707
g12
g13
sg14
S'TeX Gyre Pagella'
p708
sg16
I700
sg17
g13
sg18
g13
sg19
S'/Library/Fonts/TeX Gyre/texgyrepagella-bold.otf'
p709
sg21
g22
sbag7
(g8
g9
NtRp710
(dp711
g12
g13
sg14
S'Latin Modern Mono Prop Light'
p712
sg16
I400
sg17
g13
sg18
g13
sg19
S'/Library/Fonts/Latin Modern/lmmonoproplt10-regular.otf'
p713
sg21
g22
sbag7
(g8
g9
NtRp714
(dp715
g12
g13
sg14
S'Arial Black'
p716
sg16
I900
sg17
g13
sg18
g13
sg19
S'/Library/Fonts/Arial Black.ttf'
p717
sg21
g22
sbag7
(g8
g9
NtRp718
(dp719
g12
g41
sg14
S'Myriad Pro'
p720
sg16
I700
sg17
g13
sg18
g13
sg19
S'/Library/Fonts/MyriadPro-SemiboldIt.otf'
p721
sg21
g22
sbag7
(g8
g9
NtRp722
(dp723
g12
g13
sg14
S'Luxi Serif'
p724
sg16
I400
sg17
g13
sg18
g13
sg19
S'/usr/X11/lib/X11/fonts/TTF/luxirr.ttf'
p725
sg21
g22
sbag7
(g8
g9
NtRp726
(dp727
g12
g13
sg14
S'Latin Modern Roman'
p728
sg16
I400
sg17
g13
sg18
g13
sg19
S'/Library/Fonts/Latin Modern/lmroman5-regular.otf'
p729
sg21
g22
sbag7
(g8
g9
NtRp730
(dp731
g12
g13
sg14
S'Serto Mardin'
p732
sg16
I400
sg17
g13
sg18
g13
sg19
S'/usr/X11/lib/X11/fonts/OTF/SyrCOMMardin.otf'
p733
sg21
g22
sbag7
(g8
g9
NtRp734
(dp735
g12
g41
sg14
S'STIXGeneral'
p736
sg16
I400
sg17
g13
sg18
g13
sg19
S'/Library/Fonts/STIXGeneralItalic.otf'
p737
sg21
g22
sbag7
(g8
g9
NtRp738
(dp739
g12
g41
sg14
S'Latin725 BT'
p740
sg16
I700
sg17
g13
sg18
g13
sg19
S'/Users/andrea/Library/Fonts/Lat725BI.ttf'
p741
sg21
g22
sbag7
(g8
g9
NtRp742
(dp743
g12
g41
sg14
S'Myriad Pro'
p744
sg16
I700
sg17
g172
sg18
g13
sg19
S'/Library/Fonts/MyriadPro-BoldCondIt.otf'
p745
sg21
g22
sbag7
(g8
g9
NtRp746
(dp747
g12
g46
sg14
S'Latin Modern Mono Caps'
p748
sg16
I400
sg17
g13
sg18
g13
sg19
S'/Library/Fonts/Latin Modern/lmmonocaps10-oblique.otf'
p749
sg21
g22
sbag7
(g8
g9
NtRp750
(dp751
g12
g41
sg14
S'AladdinExpanded'
p752
sg16
I400
sg17
g13
sg18
g13
sg19
S'/Users/andrea/Library/Fonts/ALADDNEI.TTF'
p753
sg21
g22
sbag7
(g8
g9
NtRp754
(dp755
g12
g13
sg14
S'STIXSizeFourSym'
p756
sg16
I400
sg17
g13
sg18
g13
sg19
S'/Library/Fonts/STIXSizFourSymReg.otf'
p757
sg21
g22
sbag7
(g8
g9
NtRp758
(dp759
g12
g13
sg14
S'Adobe Kaiti Std'
p760
sg16
I400
sg17
g13
sg18
g13
sg19
S'/Library/Fonts/AdobeKaitiStd-Regular.otf'
p761
sg21
g22
sbag7
(g8
g9
NtRp762
(dp763
g12
g13
sg14
S'Nueva Std'
p764
sg16
I400
sg17
g172
sg18
g13
sg19
S'/Library/Fonts/NuevaStd-Cond.otf'
p765
sg21
g22
sbag7
(g8
g9
NtRp766
(dp767
g12
g13
sg14
S'Wingdings 3'
p768
sg16
I400
sg17
g13
sg18
g13
sg19
S'/Library/Fonts/Wingdings 3.ttf'
p769
sg21
g22
sbag7
(g8
g9
NtRp770
(dp771
g12
g13
sg14
S'Arial Hebrew'
p772
sg16
I400
sg17
g13
sg18
g13
sg19
S'/Library/Fonts/ArialHB.ttf'
p773
sg21
g22
sbag7
(g8
g9
NtRp774
(dp775
g12
g13
sg14
S'Latin Modern Sans'
p776
sg16
I700
sg17
g13
sg18
g13
sg19
S'/Library/Fonts/Latin Modern/lmsans10-bold.otf'
p777
sg21
g22
sbag7
(g8
g9
NtRp778
(dp779
g12
g13
sg14
S'Consolas'
p780
sg16
I400
sg17
g13
sg18
g13
sg19
S'/Library/Fonts/Microsoft/Consolas.ttf'
p781
sg21
g22
sbag7
(g8
g9
NtRp782
(dp783
g12
g41
sg14
S'Perpetua'
p784
sg16
I400
sg17
g13
sg18
g13
sg19
S'/Library/Fonts/Microsoft/Perpetua Italic.ttf'
p785
sg21
g22
sbag7
(g8
g9
NtRp786
(dp787
g12
g13
sg14
S'Latin Modern Roman'
p788
sg16
I400
sg17
g13
sg18
g13
sg19
S'/Library/Fonts/Latin Modern/lmroman6-regular.otf'
p789
sg21
g22
sbag7
(g8
g9
NtRp790
(dp791
g12
g13
sg14
S'Corsiva Hebrew'
p792
sg16
I700
sg17
g13
sg18
g13
sg19
S'/Library/Fonts/CorsivaBold.ttf'
p793
sg21
g22
sbag7
(g8
g9
NtRp794
(dp795
g12
g13
sg14
S'Kozuka Mincho Pr6N'
p796
sg16
I400
sg17
g13
sg18
g13
sg19
S'/Library/Fonts/KozMinPr6N-Light.otf'
p797
sg21
g22
sbag7
(g8
g9
NtRp798
(dp799
g12
g13
sg14
S'PMingLiU'
p800
sg16
I400
sg17
g13
sg18
g13
sg19
S'/Library/Fonts/Microsoft/PMingLiU.ttf'
p801
sg21
g22
sbag7
(g8
g9
NtRp802
(dp803
g12
g13
sg14
S'Arial'
p804
sg16
I400
sg17
g13
sg18
g13
sg19
S'/Library/Fonts/Microsoft/Arial.ttf'
p805
sg21
g22
sbag7
(g8
g9
NtRp806
(dp807
g12
g13
sg14
S'STIXSizeFourSym'
p808
sg16
I700
sg17
g13
sg18
g13
sg19
S'/Library/Fonts/STIXSizFourSymBol.otf'
p809
sg21
g22
sbag7
(g8
g9
NtRp810
(dp811
g12
g13
sg14
S'Kozuka Gothic Pr6N'
p812
sg16
I400
sg17
g13
sg18
g13
sg19
S'/Library/Fonts/KozGoPr6N-Medium.otf'
p813
sg21
g22
sbag7
(g8
g9
NtRp814
(dp815
g12
g13
sg14
S'Marlett'
p816
sg16
I400
sg17
g13
sg18
g13
sg19
S'/Library/Fonts/Microsoft/Marlett.ttf'
p817
sg21
g22
sbag7
(g8
g9
NtRp818
(dp819
g12
g13
sg14
S'Calibri'
p820
sg16
I700
sg17
g13
sg18
g13
sg19
S'/Library/Fonts/Microsoft/Calibri Bold.ttf'
p821
sg21
g22
sbag7
(g8
g9
NtRp822
(dp823
g12
g13
sg14
S'TeX Gyre Heros Cn'
p824
sg16
I700
sg17
g13
sg18
g13
sg19
S'/Library/Fonts/TeX Gyre/texgyreheroscn-bold.otf'
p825
sg21
g22
sbag7
(g8
g9
NtRp826
(dp827
g12
g46
sg14
S'Latin Modern Sans'
p828
sg16
I400
sg17
g13
sg18
g13
sg19
S'/Library/Fonts/Latin Modern/lmsans10-oblique.otf'
p829
sg21
g22
sbag7
(g8
g9
NtRp830
(dp831
g12
g41
sg14
S'Georgia'
p832
sg16
I400
sg17
g13
sg18
g13
sg19
S'/Library/Fonts/Georgia Italic.ttf'
p833
sg21
g22
sbag7
(g8
g9
NtRp834
(dp835
g12
g13
sg14
S'Wingdings'
p836
sg16
I400
sg17
g13
sg18
g13
sg19
S'/Library/Fonts/Wingdings.ttf'
p837
sg21
g22
sbag7
(g8
g9
NtRp838
(dp839
g12
g13
sg14
S'Impact'
p840
sg16
I400
sg17
g13
sg18
g13
sg19
S'/Library/Fonts/Impact.ttf'
p841
sg21
g22
sbag7
(g8
g9
NtRp842
(dp843
g12
g13
sg14
S'TeX Gyre Bonum'
p844
sg16
I700
sg17
g13
sg18
g13
sg19
S'/Library/Fonts/TeX Gyre/texgyrebonum-bold.otf'
p845
sg21
g22
sbag7
(g8
g9
NtRp846
(dp847
g12
g13
sg14
S'GentiumAlt'
p848
sg16
I400
sg17
g13
sg18
g13
sg19
S'/Users/andrea/Library/Fonts/GenAR102.TTF'
p849
sg21
g22
sbag7
(g8
g9
NtRp850
(dp851
g12
g13
sg14
S'TradeGothic'
p852
sg16
I700
sg17
g13
sg18
g13
sg19
S'/Users/andrea/Library/Fonts/TradeGotBol.otf'
p853
sg21
g22
sbag7
(g8
g9
NtRp854
(dp855
g12
g13
sg14
S'Tahoma'
p856
sg16
I700
sg17
g13
sg18
g13
sg19
S'/Library/Fonts/Tahoma Bold.ttf'
p857
sg21
g22
sbag7
(g8
g9
NtRp858
(dp859
g12
g41
sg14
S'Georgia'
p860
sg16
I700
sg17
g13
sg18
g13
sg19
S'/Library/Fonts/Georgia Bold Italic.ttf'
p861
sg21
g22
sbag7
(g8
g9
NtRp862
(dp863
g12
g13
sg14
S'Tekton Pro'
p864
sg16
I700
sg17
g172
sg18
g13
sg19
S'/Library/Fonts/TektonPro-BoldCond.otf'
p865
sg21
g22
sbag7
(g8
g9
NtRp866
(dp867
g12
g46
sg14
S'Latin Modern Sans'
p868
sg16
I700
sg17
g13
sg18
g13
sg19
S'/Library/Fonts/Latin Modern/lmsans10-boldoblique.otf'
p869
sg21
g22
sbag7
(g8
g9
NtRp870
(dp871
g12
g41
sg14
S'Myriad Arabic'
p872
sg16
I700
sg17
g13
sg18
g13
sg19
S'/Library/Fonts/MyriadArabic-BoldIt.otf'
p873
sg21
g22
sbag7
(g8
g9
NtRp874
(dp875
g12
g46
sg14
S'Latin Modern Sans'
p876
sg16
I400
sg17
g13
sg18
g13
sg19
S'/Library/Fonts/Latin Modern/lmsans9-oblique.otf'
p877
sg21
g22
sbag7
(g8
g9
NtRp878
(dp879
g12
g46
sg14
S'Luxi Mono'
p880
sg16
I700
sg17
g13
sg18
g13
sg19
S'/usr/X11/lib/X11/fonts/TTF/luximbi.ttf'
p881
sg21
g22
sbag7
(g8
g9
NtRp882
(dp883
g12
g41
sg14
S'Arno Pro'
p884
sg16
I700
sg17
g13
sg18
g13
sg19
S'/Library/Fonts/ArnoPro-BoldItalicCaption.otf'
p885
sg21
g22
sbag7
(g8
g9
NtRp886
(dp887
g12
g13
sg14
S'Hoefler Text'
p888
sg16
I400
sg17
g13
sg18
g13
sg19
S'/Library/Fonts/Hoefler Text Ornaments.ttf'
p889
sg21
g22
sbag7
(g8
g9
NtRp890
(dp891
g12
g41
sg14
S'Chaparral Pro'
p892
sg16
I200
sg17
g13
sg18
g13
sg19
S'/Library/Fonts/ChaparralPro-LightIt.otf'
p893
sg21
g22
sbag7
(g8
g9
NtRp894
(dp895
g12
g13
sg14
S'Eurostile'
p896
sg16
I400
sg17
g13
sg18
g13
sg19
S'/Users/andrea/Library/Fonts/Eurostile.ttf'
p897
sg21
g22
sbag7
(g8
g9
NtRp898
(dp899
g12
g41
sg14
S'Adobe Arabic'
p900
sg16
I400
sg17
g13
sg18
g13
sg19
S'/Library/Fonts/AdobeArabic-Italic.otf'
p901
sg21
g22
sbag7
(g8
g9
NtRp902
(dp903
g12
g13
sg14
S'Hiragino Mincho ProN'
p904
sg16
I700
sg17
g13
sg18
g13
sg19
S'/System/Library/Fonts/\xe3\x83\x92\xe3\x83\xa9\xe3\x82\xad\xe3\x82\x99\xe3\x83\x8e\xe6\x98\x8e\xe6\x9c\x9d ProN W6.otf'
p905
sg21
g22
sbag7
(g8
g9
NtRp906
(dp907
g12
g13
sg14
S'AW Conqueror Carved'
p908
sg16
I400
sg17
g13
sg18
g13
sg19
S'/Users/andrea/Library/Fonts/AWConquerorCarved-Regular.otf'
p909
sg21
g22
sbag7
(g8
g9
NtRp910
(dp911
g12
g46
sg14
S'Latin Modern Roman Demi'
p912
sg16
I600
sg17
g13
sg18
g13
sg19
S'/Library/Fonts/Latin Modern/lmromandemi10-oblique.otf'
p913
sg21
g22
sbag7
(g8
g9
NtRp914
(dp915
g12
g13
sg14
S'Rosewood Std'
p916
sg16
I400
sg17
g13
sg18
g13
sg19
S'/Library/Fonts/RosewoodStd-Regular.otf'
p917
sg21
g22
sbag7
(g8
g9
NtRp918
(dp919
g12
g13
sg14
S'EleganTech?'
p920
sg16
I400
sg17
g13
sg18
g13
sg19
S'/Users/andrea/Library/Fonts/EleganTech-.ttf'
p921
sg21
g22
sbag7
(g8
g9
NtRp922
(dp923
g12
g41
sg14
S'Kis BT'
p924
sg16
I400
sg17
g13
sg18
g13
sg19
S'/Users/andrea/Library/Fonts/KisIt___.ttf'
p925
sg21
g22
sbag7
(g8
g9
NtRp926
(dp927
g12
g46
sg14
S'Latin Modern Mono Prop'
p928
sg16
I400
sg17
g13
sg18
g13
sg19
S'/Library/Fonts/Latin Modern/lmmonoprop10-oblique.otf'
p929
sg21
g22
sbag7
(g8
g9
NtRp930
(dp931
g12
g13
sg14
S'Doulos SIL'
p932
sg16
I400
sg17
g13
sg18
g13
sg19
S'/Users/andrea/Library/Fonts/DoulosSILR.ttf'
p933
sg21
g22
sbag7
(g8
g9
NtRp934
(dp935
g12
g41
sg14
S'TeX Gyre Schola'
p936
sg16
I700
sg17
g13
sg18
g13
sg19
S'/Library/Fonts/TeX Gyre/texgyreschola-bolditalic.otf'
p937
sg21
g22
sbag7
(g8
g9
NtRp938
(dp939
g12
g13
sg14
S'Adobe Arabic'
p940
sg16
I700
sg17
g13
sg18
g13
sg19
S'/Library/Fonts/AdobeArabic-Bold.otf'
p941
sg21
g22
sbag7
(g8
g9
NtRp942
(dp943
g12
g13
sg14
S'PilGi'
p944
sg16
I400
sg17
g13
sg18
g13
sg19
S'/Library/Fonts/Pilgiche.ttf'
p945
sg21
g22
sbag7
(g8
g9
NtRp946
(dp947
g12
g13
sg14
S'Gill Sans MT'
p948
sg16
I400
sg17
g13
sg18
g13
sg19
S'/Library/Fonts/Microsoft/Gill Sans MT.ttf'
p949
sg21
g22
sbag7
(g8
g9
NtRp950
(dp951
g12
g13
sg14
S'Latin Modern Sans'
p952
sg16
I400
sg17
g13
sg18
g13
sg19
S'/Library/Fonts/Latin Modern/lmsans17-regular.otf'
p953
sg21
g22
sbag7
(g8
g9
NtRp954
(dp955
g12
g46
sg14
S'Latin Modern Sans'
p956
sg16
I400
sg17
g13
sg18
g13
sg19
S'/Library/Fonts/Latin Modern/lmsans12-oblique.otf'
p957
sg21
g22
sbag7
(g8
g9
NtRp958
(dp959
g12
g13
sg14
S'Myriad Arabic'
p960
sg16
I400
sg17
g13
sg18
g13
sg19
S'/Library/Fonts/MyriadArabic-Regular.otf'
p961
sg21
g22
sbag7
(g8
g9
NtRp962
(dp963
g12
g41
sg14
S'Arno Pro'
p964
sg16
I400
sg17
g13
sg18
g13
sg19
S'/Library/Fonts/ArnoPro-ItalicCaption.otf'
p965
sg21
g22
sbag7
(g8
g9
NtRp966
(dp967
g12
g41
sg14
S'Verdana'
p968
sg16
I400
sg17
g13
sg18
g13
sg19
S'/Library/Fonts/Microsoft/Verdana Italic.ttf'
p969
sg21
g22
sbag7
(g8
g9
NtRp970
(dp971
g12
g13
sg14
S'Gujarati MT'
p972
sg16
I700
sg17
g13
sg18
g13
sg19
S'/Library/Fonts/GujaratiMTBold.ttf'
p973
sg21
g22
sbag7
(g8
g9
NtRp974
(dp975
g12
g13
sg14
S'Latin Modern Roman'
p976
sg16
I400
sg17
g13
sg18
g13
sg19
S'/Library/Fonts/Latin Modern/lmroman10-regular.otf'
p977
sg21
g22
sbag7
(g8
g9
NtRp978
(dp979
g12
g41
sg14
S'Letter Gothic Std'
p980
sg16
I700
sg17
g13
sg18
g13
sg19
S'/Library/Fonts/LetterGothicStd-BoldSlanted.otf'
p981
sg21
g22
sbag7
(g8
g9
NtRp982
(dp983
g12
g13
sg14
S'Duepuntozero bold'
p984
sg16
I700
sg17
g13
sg18
g13
sg19
S'/Users/andrea/Library/Fonts/duepuntozero_bold.ttf'
p985
sg21
g22
sbag7
(g8
g9
NtRp986
(dp987
g12
g41
sg14
S'Nueva Std'
p988
sg16
I400
sg17
g172
sg18
g13
sg19
S'/Library/Fonts/NuevaStd-CondItalic.otf'
p989
sg21
g22
sbag7
(g8
g9
NtRp990
(dp991
g12
g13
sg14
S'Liberation Mono'
p992
sg16
I400
sg17
g13
sg18
g13
sg19
S'/Users/andrea/.fonts/LiberationMono_Regular.ttf'
p993
sg21
g22
sbag7
(g8
g9
NtRp994
(dp995
g12
g41
sg14
S'Arial'
p996
sg16
I400
sg17
g13
sg18
g13
sg19
S'/Library/Fonts/Microsoft/Arial Italic.ttf'
p997
sg21
g22
sbag7
(g8
g9
NtRp998
(dp999
g12
g46
sg14
S'Luxi Sans'
p1000
sg16
I400
sg17
g13
sg18
g13
sg19
S'/usr/X11/lib/X11/fonts/TTF/luxisri.ttf'
p1001
sg21
g22
sbag7
(g8
g9
NtRp1002
(dp1003
g12
g13
sg14
S'Zapf Dingbats'
p1004
sg16
I400
sg17
g13
sg18
g13
sg19
S'/System/Library/Fonts/ZapfDingbats.ttf'
p1005
sg21
g22
sbag7
(g8
g9
NtRp1006
(dp1007
g12
g13
sg14
S'Latin Modern Mono Slanted'
p1008
sg16
I400
sg17
g13
sg18
g13
sg19
S'/Library/Fonts/Latin Modern/lmmonoslant10-regular.otf'
p1009
sg21
g22
sbag7
(g8
g9
NtRp1010
(dp1011
g12
g41
sg14
S'Calibri'
p1012
sg16
I700
sg17
g13
sg18
g13
sg19
S'/Library/Fonts/Microsoft/Calibri Bold Italic.ttf'
p1013
sg21
g22
sbag7
(g8
g9
NtRp1014
(dp1015
g12
g13
sg14
S'HandelGotDLig'
p1016
sg16
I400
sg17
g13
sg18
g13
sg19
S'/Users/andrea/Library/Fonts/HandelGotDLig.ttf'
p1017
sg21
g22
sbag7
(g8
g9
NtRp1018
(dp1019
g12
g13
sg14
S'Apple LiSung'
p1020
sg16
I200
sg17
g13
sg18
g13
sg19
S'/Library/Fonts/Apple LiSung Light.ttf'
p1021
sg21
g22
sbag7
(g8
g9
NtRp1022
(dp1023
g12
g41
sg14
S'Corbel'
p1024
sg16
I700
sg17
g13
sg18
g13
sg19
S'/Library/Fonts/Microsoft/Corbel Bold Italic.ttf'
p1025
sg21
g22
sbag7
(g8
g9
NtRp1026
(dp1027
g12
g13
sg14
S'Fontin Sans'
p1028
sg16
I700
sg17
g13
sg18
g13
sg19
S'/Users/andrea/Library/Fonts/Fontin_Sans_B_45b.otf'
p1029
sg21
g22
sbag7
(g8
g9
NtRp1030
(dp1031
g12
g13
sg14
S'Adobe Garamond Pro'
p1032
sg16
I700
sg17
g13
sg18
g13
sg19
S'/Library/Fonts/AGaramondPro-Bold.otf'
p1033
sg21
g22
sbag7
(g8
g9
NtRp1034
(dp1035
g12
g13
sg14
S'Stencil Std'
p1036
sg16
I700
sg17
g13
sg18
g13
sg19
S'/Library/Fonts/StencilStd.otf'
p1037
sg21
g22
sbag7
(g8
g9
NtRp1038
(dp1039
g12
g13
sg14
S'Nymphette'
p1040
sg16
I400
sg17
g13
sg18
g13
sg19
S'/Users/andrea/Library/Fonts/Nymphette.ttf'
p1041
sg21
g22
sbag7
(g8
g9
NtRp1042
(dp1043
g12
g13
sg14
S'Arno Pro'
p1044
sg16
I400
sg17
g13
sg18
g13
sg19
S'/Library/Fonts/ArnoPro-Regular.otf'
p1045
sg21
g22
sbag7
(g8
g9
NtRp1046
(dp1047
g12
g13
sg14
S'whola'
p1048
sg16
I400
sg17
g13
sg18
g13
sg19
S'/Users/andrea/Library/Fonts/whola.ttf'
p1049
sg21
g22
sbag7
(g8
g9
NtRp1050
(dp1051
g12
g13
sg14
S'Myriad Pro'
p1052
sg16
I400
sg17
g13
sg18
g13
sg19
S'/Library/Fonts/MyriadPro-Regular.otf'
p1053
sg21
g22
sbag7
(g8
g9
NtRp1054
(dp1055
g12
g46
sg14
S'Latin Modern Mono Prop Light'
p1056
sg16
I200
sg17
g13
sg18
g13
sg19
S'/Library/Fonts/Latin Modern/lmmonoproplt10-oblique.otf'
p1057
sg21
g22
sbag7
(g8
g9
NtRp1058
(dp1059
g12
g13
sg14
S'Myriad Pro'
p1060
sg16
I400
sg17
g172
sg18
g13
sg19
S'/Library/Fonts/MyriadPro-Cond.otf'
p1061
sg21
g22
sbag7
(g8
g9
NtRp1062
(dp1063
g12
g41
sg14
S'Trebuchet MS'
p1064
sg16
I700
sg17
g13
sg18
g13
sg19
S'/Library/Fonts/Trebuchet MS Bold Italic.ttf'
p1065
sg21
g22
sbag7
(g8
g9
NtRp1066
(dp1067
g12
g13
sg14
S'Arno Pro'
p1068
sg16
I700
sg17
g13
sg18
g13
sg19
S'/Library/Fonts/ArnoPro-BoldDisplay.otf'
p1069
sg21
g22
sbag7
(g8
g9
NtRp1070
(dp1071
g12
g13
sg14
S'STIXIntegralsSm'
p1072
sg16
I700
sg17
g13
sg18
g13
sg19
S'/Library/Fonts/STIXIntSmBol.otf'
p1073
sg21
g22
sbag7
(g8
g9
NtRp1074
(dp1075
g12
g13
sg14
S'Adobe Ming Std'
p1076
sg16
I400
sg17
g13
sg18
g13
sg19
S'/Library/Fonts/AdobeMingStd-Light.otf'
p1077
sg21
g22
sbag7
(g8
g9
NtRp1078
(dp1079
g12
g41
sg14
S'TeX Gyre Heros Cn'
p1080
sg16
I700
sg17
g13
sg18
g13
sg19
S'/Library/Fonts/TeX Gyre/texgyreheroscn-bolditalic.otf'
p1081
sg21
g22
sbag7
(g8
g9
NtRp1082
(dp1083
g12
g46
sg14
S'Latin Modern Mono Light'
p1084
sg16
I200
sg17
g13
sg18
g13
sg19
S'/Library/Fonts/Latin Modern/lmmonolt10-oblique.otf'
p1085
sg21
g22
sbag7
(g8
g9
NtRp1086
(dp1087
g12
g13
sg14
S'Latin Modern Roman Unslanted'
p1088
sg16
I400
sg17
g13
sg18
g13
sg19
S'/Library/Fonts/Latin Modern/lmromanunsl10-regular.otf'
p1089
sg21
g22
sbag7
(g8
g9
NtRp1090
(dp1091
g12
g46
sg14
S'Latin Modern Sans'
p1092
sg16
I400
sg17
g13
sg18
g13
sg19
S'/Library/Fonts/Latin Modern/lmsans8-oblique.otf'
p1093
sg21
g22
sbag7
(g8
g9
NtRp1094
(dp1095
g12
g13
sg14
S'Meiryo'
p1096
sg16
I700
sg17
g13
sg18
g13
sg19
S'/Library/Fonts/Microsoft/Meiryo Bold.ttf'
p1097
sg21
g22
sbag7
(g8
g9
NtRp1098
(dp1099
g12
g13
sg14
S'Corbel'
p1100
sg16
I700
sg17
g13
sg18
g13
sg19
S'/Library/Fonts/Microsoft/Corbel Bold.ttf'
p1101
sg21
g22
sbag7
(g8
g9
NtRp1102
(dp1103
g12
g13
sg14
S'Latin Modern Roman'
p1104
sg16
I700
sg17
g13
sg18
g13
sg19
S'/Library/Fonts/Latin Modern/lmroman5-bold.otf'
p1105
sg21
g22
sbag7
(g8
g9
NtRp1106
(dp1107
g12
g13
sg14
S'Inconsolata-dz'
p1108
sg16
I400
sg17
g13
sg18
g13
sg19
S'/Users/andrea/Library/Fonts/Inconsolata-dz.otf'
p1109
sg21
g22
sbag7
(g8
g9
NtRp1110
(dp1111
g12
g13
sg14
S'Cooper Std'
p1112
sg16
I900
sg17
g13
sg18
g13
sg19
S'/Library/Fonts/CooperBlackStd.otf'
p1113
sg21
g22
sbag7
(g8
g9
NtRp1114
(dp1115
g12
g13
sg14
S'Estrangelo Midyat'
p1116
sg16
I400
sg17
g13
sg18
g13
sg19
S'/usr/X11R6/lib/X11/fonts/OTF/SyrCOMMidyat.otf'
p1117
sg21
g22
sbag7
(g8
g9
NtRp1118
(dp1119
g12
g41
sg14
S'Gentium'
p1120
sg16
I400
sg17
g13
sg18
g13
sg19
S'/Users/andrea/Library/Fonts/GenI102.TTF'
p1121
sg21
g22
sbag7
(g8
g9
NtRp1122
(dp1123
g12
g13
sg14
S'Bell Gothic Std'
p1124
sg16
I700
sg17
g13
sg18
g13
sg19
S'/Library/Fonts/BellGothicStd-Bold.otf'
p1125
sg21
g22
sbag7
(g8
g9
NtRp1126
(dp1127
g12
g13
sg14
S'Kozuka Gothic Pro'
p1128
sg16
I400
sg17
g13
sg18
g13
sg19
S'/Library/Fonts/KozGoPro-ExtraLight.otf'
p1129
sg21
g22
sbag7
(g8
g9
NtRp1130
(dp1131
g12
g41
sg14
S'Latin725 BT'
p1132
sg16
I400
sg17
g13
sg18
g13
sg19
S'/Users/andrea/Library/Fonts/Lat725It.ttf'
p1133
sg21
g22
sbag7
(g8
g9
NtRp1134
(dp1135
g12
g41
sg14
S'Tw Cen MT'
p1136
sg16
I400
sg17
g13
sg18
g13
sg19
S'/Library/Fonts/Microsoft/Tw Cen MT Italic.ttf'
p1137
sg21
g22
sbag7
(g8
g9
NtRp1138
(dp1139
g12
g13
sg14
S'Bookshelf Symbol 7'
p1140
sg16
I400
sg17
g13
sg18
g13
sg19
S'/Library/Fonts/Microsoft/Bookshelf Symbol 7.ttf'
p1141
sg21
g22
sbag7
(g8
g9
NtRp1142
(dp1143
g12
g41
sg14
S'Chaparral Pro'
p1144
sg16
I700
sg17
g13
sg18
g13
sg19
S'/Library/Fonts/ChaparralPro-BoldIt.otf'
p1145
sg21
g22
sbag7
(g8
g9
NtRp1146
(dp1147
g12
g13
sg14
S'Consolas'
p1148
sg16
I700
sg17
g13
sg18
g13
sg19
S'/Library/Fonts/Microsoft/Consolas Bold.ttf'
p1149
sg21
g22
sbag7
(g8
g9
NtRp1150
(dp1151
g12
g13
sg14
S'Charis SIL'
p1152
sg16
I400
sg17
g13
sg18
g13
sg19
S'/Users/andrea/Library/Fonts/CharisSILR.ttf'
p1153
sg21
g22
sbag7
(g8
g9
NtRp1154
(dp1155
g12
g13
sg14
S'Fontin Sans'
p1156
sg16
I400
sg17
g13
sg18
g13
sg19
S'/Users/andrea/Library/Fonts/Fontin_Sans_R_45b.otf'
p1157
sg21
g22
sbag7
(g8
g9
NtRp1158
(dp1159
g12
g41
sg14
S'TeX Gyre Bonum'
p1160
sg16
I700
sg17
g13
sg18
g13
sg19
S'/Library/Fonts/TeX Gyre/texgyrebonum-bolditalic.otf'
p1161
sg21
g22
sbag7
(g8
g9
NtRp1162
(dp1163
g12
g41
sg14
S'TeX Gyre Pagella'
p1164
sg16
I700
sg17
g13
sg18
g13
sg19
S'/Library/Fonts/TeX Gyre/texgyrepagella-bolditalic.otf'
p1165
sg21
g22
sbag7
(g8
g9
NtRp1166
(dp1167
g12
g41
sg14
S'Latin Modern Roman'
p1168
sg16
I500
sg17
g13
sg18
g13
sg19
S'/Library/Fonts/Latin Modern/lmroman12-italic.otf'
p1169
sg21
g22
sbag7
(g8
g9
NtRp1170
(dp1171
g12
g13
sg14
S'Adobe Song Std'
p1172
sg16
I400
sg17
g13
sg18
g13
sg19
S'/Library/Fonts/AdobeSongStd-Light.otf'
p1173
sg21
g22
sbag7
(g8
g9
NtRp1174
(dp1175
g12
g13
sg14
S'Hiragino Sans GB'
p1176
sg16
I400
sg17
g13
sg18
g13
sg19
S'/Library/Fonts/Hiragino Sans GB W3.otf'
p1177
sg21
g22
sbag7
(g8
g9
NtRp1178
(dp1179
g12
g13
sg14
S'Arno Pro'
p1180
sg16
I700
sg17
g13
sg18
g13
sg19
S'/Library/Fonts/ArnoPro-SmbdDisplay.otf'
p1181
sg21
g22
sbag7
(g8
g9
NtRp1182
(dp1183
g12
g41
sg14
S'Charis SIL'
p1184
sg16
I700
sg17
g13
sg18
g13
sg19
S'/Users/andrea/Library/Fonts/CharisSILBI.ttf'
p1185
sg21
g22
sbag7
(g8
g9
NtRp1186
(dp1187
g12
g13
sg14
S'Lekton'
p1188
sg16
I700
sg17
g13
sg18
g13
sg19
S'/Users/andrea/Library/Fonts/LektonBold034.otf'
p1189
sg21
g22
sbag7
(g8
g9
NtRp1190
(dp1191
g12
g13
sg14
S'Latin Modern Math'
p1192
sg16
I400
sg17
g13
sg18
g13
sg19
S'/Library/Fonts/Latin Modern/lmmath-regular.otf'
p1193
sg21
g22
sbag7
(g8
g9
NtRp1194
(dp1195
g12
g41
sg14
S'Adobe Hebrew'
p1196
sg16
I700
sg17
g13
sg18
g13
sg19
S'/Library/Fonts/AdobeHebrew-BoldItalic.otf'
p1197
sg21
g22
sbag7
(g8
g9
NtRp1198
(dp1199
g12
g13
sg14
S'Liberation Serif'
p1200
sg16
I400
sg17
g13
sg18
g13
sg19
S'/Users/andrea/.fonts/LiberationSerif_Regular.ttf'
p1201
sg21
g22
sbag7
(g8
g9
NtRp1202
(dp1203
g12
g13
sg14
S'MonicasHand'
p1204
sg16
I400
sg17
g13
sg18
g13
sg19
S'/Users/andrea/Library/Fonts/MONICA-H.TTF'
p1205
sg21
g22
sbag7
(g8
g9
NtRp1206
(dp1207
g12
g13
sg14
S'OrnamentScrollsAndFlorishes'
p1208
sg16
I400
sg17
g13
sg18
g13
sg19
S'/Users/andrea/Library/Fonts/OrnamentsScroll.ttf'
p1209
sg21
g22
sbag7
(g8
g9
NtRp1210
(dp1211
g12
g13
sg14
S'xmoovgeek'
p1212
sg16
I400
sg17
g13
sg18
g13
sg19
S'/Users/andrea/Library/Fonts/xmoovgeek.ttf'
p1213
sg21
g22
sbag7
(g8
g9
NtRp1214
(dp1215
g12
g13
sg14
S'Luxi Sans'
p1216
sg16
I700
sg17
g13
sg18
g13
sg19
S'/usr/X11/lib/X11/fonts/TTF/luxisb.ttf'
p1217
sg21
g22
sbag7
(g8
g9
NtRp1218
(dp1219
g12
g13
sg14
S'STIXNonUnicode'
p1220
sg16
I400
sg17
g13
sg18
g13
sg19
S'/Library/Fonts/STIXNonUni.otf'
p1221
sg21
g22
sbag7
(g8
g9
NtRp1222
(dp1223
g12
g13
sg14
S'Trebuchet MS'
p1224
sg16
I700
sg17
g13
sg18
g13
sg19
S'/Library/Fonts/Trebuchet MS Bold.ttf'
p1225
sg21
g22
sbag7
(g8
g9
NtRp1226
(dp1227
g12
g13
sg14
S'LiSong Pro'
p1228
sg16
I400
sg17
g13
sg18
g13
sg19
S'/Library/Fonts/\xe5\x84\xb7\xe5\xae\x8b Pro.ttf'
p1229
sg21
g22
sbag7
(g8
g9
NtRp1230
(dp1231
g12
g13
sg14
S'Palatino Linotype'
p1232
sg16
I700
sg17
g13
sg18
g13
sg19
S'/Users/andrea/Library/Fonts/palab.ttf'
p1233
sg21
g22
sbag7
(g8
g9
NtRp1234
(dp1235
g12
g41
sg14
S'STIXNonUnicode'
p1236
sg16
I700
sg17
g13
sg18
g13
sg19
S'/Library/Fonts/STIXNonUniBolIta.otf'
p1237
sg21
g22
sbag7
(g8
g9
NtRp1238
(dp1239
g12
g13
sg14
S'Adobe Devanagari'
p1240
sg16
I700
sg17
g13
sg18
g13
sg19
S'/Library/Fonts/AdobeDevanagari-Bold.otf'
p1241
sg21
g22
sbag7
(g8
g9
NtRp1242
(dp1243
g12
g13
sg14
S'Brush Script Std'
p1244
sg16
I500
sg17
g13
sg18
g13
sg19
S'/Library/Fonts/BrushScriptStd.otf'
p1245
sg21
g22
sbag7
(g8
g9
NtRp1246
(dp1247
g12
g13
sg14
S'Latin Modern Mono'
p1248
sg16
I400
sg17
g13
sg18
g13
sg19
S'/Library/Fonts/Latin Modern/lmmono8-regular.otf'
p1249
sg21
g22
sbag7
(g8
g9
NtRp1250
(dp1251
g12
g13
sg14
S'Raanana'
p1252
sg16
I400
sg17
g13
sg18
g13
sg19
S'/Library/Fonts/Raanana.ttf'
p1253
sg21
g22
sbag7
(g8
g9
NtRp1254
(dp1255
g12
g13
sg14
S'Thonburi'
p1256
sg16
I700
sg17
g13
sg18
g13
sg19
S'/System/Library/Fonts/ThonburiBold.ttf'
p1257
sg21
g22
sbag7
(g8
g9
NtRp1258
(dp1259
g12
g13
sg14
S'Apple SD Gothic Neo'
p1260
sg16
I200
sg17
g13
sg18
g13
sg19
S'/Library/Fonts/AppleSDGothicNeo-Light.otf'
p1261
sg21
g22
sbag7
(g8
g9
NtRp1262
(dp1263
g12
g41
sg14
S'Constantia'
p1264
sg16
I700
sg17
g13
sg18
g13
sg19
S'/Library/Fonts/Microsoft/Constantia Bold Italic.ttf'
p1265
sg21
g22
sbag7
(g8
g9
NtRp1266
(dp1267
g12
g13
sg14
S'Arno Pro'
p1268
sg16
I400
sg17
g13
sg18
g13
sg19
S'/Library/Fonts/ArnoPro-Display.otf'
p1269
sg21
g22
sbag7
(g8
g9
NtRp1270
(dp1271
g12
g13
sg14
S'STIXIntegralsSm'
p1272
sg16
I400
sg17
g13
sg18
g13
sg19
S'/Library/Fonts/STIXIntSmReg.otf'
p1273
sg21
g22
sbag7
(g8
g9
NtRp1274
(dp1275
g12
g13
sg14
S'Myriad Pro'
p1276
sg16
I700
sg17
g172
sg18
g13
sg19
S'/Library/Fonts/MyriadPro-BoldCond.otf'
p1277
sg21
g22
sbag7
(g8
g9
NtRp1278
(dp1279
g12
g13
sg14
S'Fontin SmallCaps'
p1280
sg16
I400
sg17
g13
sg18
g13
sg19
S'/Users/andrea/Library/Fonts/Fontin-SmallCaps.otf'
p1281
sg21
g22
sbag7
(g8
g9
NtRp1282
(dp1283
g12
g41
sg14
S'Adobe Caslon Pro'
p1284
sg16
I400
sg17
g13
sg18
g13
sg19
S'/Library/Fonts/ACaslonPro-Italic.otf'
p1285
sg21
g22
sbag7
(g8
g9
NtRp1286
(dp1287
g12
g13
sg14
S'MS PGothic'
p1288
sg16
I400
sg17
g13
sg18
g13
sg19
S'/Library/Fonts/Microsoft/MS PGothic.ttf'
p1289
sg21
g22
sbag7
(g8
g9
NtRp1290
(dp1291
g12
g13
sg14
S'Constantia'
p1292
sg16
I400
sg17
g13
sg18
g13
sg19
S'/Library/Fonts/Microsoft/Constantia.ttf'
p1293
sg21
g22
sbag7
(g8
g9
NtRp1294
(dp1295
g12
g13
sg14
S'Chalkduster'
p1296
sg16
I400
sg17
g13
sg18
g13
sg19
S'/Library/Fonts/Chalkduster.ttf'
p1297
sg21
g22
sbag7
(g8
g9
NtRp1298
(dp1299
g12
g13
sg14
S'Estrangelo Antioch'
p1300
sg16
I400
sg17
g13
sg18
g13
sg19
S'/usr/X11/lib/X11/fonts/OTF/SyrCOMAntioch.otf'
p1301
sg21
g22
sbag7
(g8
g9
NtRp1302
(dp1303
g12
g13
sg14
S'ChopinScript'
p1304
sg16
I400
sg17
g13
sg18
g13
sg19
S'/Users/andrea/Library/Fonts/ChopinScript.otf'
p1305
sg21
g22
sbag7
(g8
g9
NtRp1306
(dp1307
g12
g41
sg14
S'Minion Pro'
p1308
sg16
I700
sg17
g13
sg18
g13
sg19
S'/Library/Fonts/MinionPro-BoldIt.otf'
p1309
sg21
g22
sbag7
(g8
g9
NtRp1310
(dp1311
g12
g13
sg14
S'Serto Jerusalem'
p1312
sg16
I700
sg17
g13
sg18
g13
sg19
S'/usr/X11/lib/X11/fonts/OTF/SyrCOMJerusalemBold.otf'
p1313
sg21
g22
sbag7
(g8
g9
NtRp1314
(dp1315
g12
g13
sg14
S'Raleway'
p1316
sg16
I400
sg17
g13
sg18
g13
sg19
S'/Users/andrea/Library/Fonts/raleway_thin.otf'
p1317
sg21
g22
sbag7
(g8
g9
NtRp1318
(dp1319
g12
g13
sg14
S'Arno Pro'
p1320
sg16
I700
sg17
g13
sg18
g13
sg19
S'/Library/Fonts/ArnoPro-BoldSubhead.otf'
p1321
sg21
g22
sbag7
(g8
g9
NtRp1322
(dp1323
g12
g13
sg14
S'Adobe Caslon Pro'
p1324
sg16
I400
sg17
g13
sg18
g13
sg19
S'/Library/Fonts/ACaslonPro-Regular.otf'
p1325
sg21
g22
sbag7
(g8
g9
NtRp1326
(dp1327
g12
g13
sg14
S'STIXIntegralsUp'
p1328
sg16
I400
sg17
g13
sg18
g13
sg19
S'/Library/Fonts/STIXIntUpReg.otf'
p1329
sg21
g22
sbag7
(g8
g9
NtRp1330
(dp1331
g12
g13
sg14
S'Mesquite Std'
p1332
sg16
I500
sg17
g13
sg18
g13
sg19
S'/Library/Fonts/MesquiteStd.otf'
p1333
sg21
g22
sbag7
(g8
g9
NtRp1334
(dp1335
g12
g41
sg14
S'STIXGeneral'
p1336
sg16
I700
sg17
g13
sg18
g13
sg19
S'/Users/andrea/Library/Fonts/STIXGeneralBolIta.otf'
p1337
sg21
g22
sbag7
(g8
g9
NtRp1338
(dp1339
g12
g13
sg14
S'Big Caslon'
p1340
sg16
I500
sg17
g13
sg18
g13
sg19
S'/Library/Fonts/BigCaslon.ttf'
p1341
sg21
g22
sbag7
(g8
g9
NtRp1342
(dp1343
g12
g41
sg14
S'Adobe Hebrew'
p1344
sg16
I400
sg17
g13
sg18
g13
sg19
S'/Library/Fonts/AdobeHebrew-Italic.otf'
p1345
sg21
g22
sbag7
(g8
g9
NtRp1346
(dp1347
g12
g13
sg14
S'Ayuthaya'
p1348
sg16
I400
sg17
g13
sg18
g13
sg19
S'/Library/Fonts/Ayuthaya.ttf'
p1349
sg21
g22
sbag7
(g8
g9
NtRp1350
(dp1351
g12
g13
sg14
S'Serto Kharput'
p1352
sg16
I400
sg17
g13
sg18
g13
sg19
S'/usr/X11R6/lib/X11/fonts/OTF/SyrCOMKharput.otf'
p1353
sg21
g22
sbag7
(g8
g9
NtRp1354
(dp1355
g12
g13
sg14
S'Orator Std'
p1356
sg16
I500
sg17
g13
sg18
g13
sg19
S'/Library/Fonts/OratorStd.otf'
p1357
sg21
g22
sbag7
(g8
g9
NtRp1358
(dp1359
g12
g13
sg14
S'Blackoak Std'
p1360
sg16
I900
sg17
g13
sg18
g13
sg19
S'/Library/Fonts/BlackoakStd.otf'
p1361
sg21
g22
sbag7
(g8
g9
NtRp1362
(dp1363
g12
g13
sg14
S'Hiragino Kaku Gothic Pro'
p1364
sg16
I700
sg17
g13
sg18
g13
sg19
S'/Library/Fonts/\xe3\x83\x92\xe3\x83\xa9\xe3\x82\xad\xe3\x82\x99\xe3\x83\x8e\xe8\xa7\x92\xe3\x82\xb3\xe3\x82\x99 Pro W6.otf'
p1365
sg21
g22
sbag7
(g8
g9
NtRp1366
(dp1367
g12
g13
sg14
S'Arno Pro'
p1368
sg16
I200
sg17
g13
sg18
g13
sg19
S'/Library/Fonts/ArnoPro-LightDisplay.otf'
p1369
sg21
g22
sbag7
(g8
g9
NtRp1370
(dp1371
g12
g41
sg14
S'Arno Pro'
p1372
sg16
I700
sg17
g13
sg18
g13
sg19
S'/Library/Fonts/ArnoPro-SmbdItalicDisplay.otf'
p1373
sg21
g22
sbag7
(g8
g9
NtRp1374
(dp1375
g12
g41
sg14
S'Latin Modern Roman'
p1376
sg16
I500
sg17
g13
sg18
g13
sg19
S'/Library/Fonts/Latin Modern/lmroman7-italic.otf'
p1377
sg21
g22
sbag7
(g8
g9
NtRp1378
(dp1379
g12
g41
sg14
S'Arno Pro'
p1380
sg16
I400
sg17
g13
sg18
g13
sg19
S'/Library/Fonts/ArnoPro-Italic.otf'
p1381
sg21
g22
sbag7
(g8
g9
NtRp1382
(dp1383
g12
g13
sg14
S'MS Reference Specialty'
p1384
sg16
I400
sg17
g13
sg18
g13
sg19
S'/Library/Fonts/Microsoft/MS Reference Specialty.ttf'
p1385
sg21
g22
sbag7
(g8
g9
NtRp1386
(dp1387
g12
g41
sg14
S'Liberation Sans'
p1388
sg16
I400
sg17
g13
sg18
g13
sg19
S'/Users/andrea/.fonts/LiberationSans_Italic.ttf'
p1389
sg21
g22
sbag7
(g8
g9
NtRp1390
(dp1391
g12
g13
sg14
S'AW Conqueror Carved'
p1392
sg16
I400
sg17
g13
sg18
g13
sg19
S'/Users/andrea/Library/Fonts/AWConquerorCarved-Four.otf'
p1393
sg21
g22
sbag7
(g8
g9
NtRp1394
(dp1395
g12
g13
sg14
S'Minion Pro'
p1396
sg16
I700
sg17
g13
sg18
g13
sg19
S'/Library/Fonts/MinionPro-Bold.otf'
p1397
sg21
g22
sbag7
(g8
g9
NtRp1398
(dp1399
g12
g13
sg14
S'TeX Gyre Pagella'
p1400
sg16
I400
sg17
g13
sg18
g13
sg19
S'/Library/Fonts/TeX Gyre/texgyrepagella-regular.otf'
p1401
sg21
g22
sbag7
(g8
g9
NtRp1402
(dp1403
g12
g41
sg14
S'Minion Pro'
p1404
sg16
I700
sg17
g172
sg18
g13
sg19
S'/Library/Fonts/MinionPro-BoldCnIt.otf'
p1405
sg21
g22
sbag7
(g8
g9
NtRp1406
(dp1407
g12
g13
sg14
S'Andale Mono'
p1408
sg16
I400
sg17
g13
sg18
g13
sg19
S'/Library/Fonts/Andale Mono.ttf'
p1409
sg21
g22
sbag7
(g8
g9
NtRp1410
(dp1411
g12
g41
sg14
S'Consolas'
p1412
sg16
I400
sg17
g13
sg18
g13
sg19
S'/Library/Fonts/Microsoft/Consolas Italic.ttf'
p1413
sg21
g22
sbag7
(g8
g9
NtRp1414
(dp1415
g12
g13
sg14
S'Latin Modern Roman'
p1416
sg16
I700
sg17
g13
sg18
g13
sg19
S'/Library/Fonts/Latin Modern/lmroman10-bold.otf'
p1417
sg21
g22
sbag7
(g8
g9
NtRp1418
(dp1419
g12
g13
sg14
S'Letter Gothic Std'
p1420
sg16
I700
sg17
g13
sg18
g13
sg19
S'/Library/Fonts/LetterGothicStd-Bold.otf'
p1421
sg21
g22
sbag7
(g8
g9
NtRp1422
(dp1423
g12
g13
sg14
S'Silom'
p1424
sg16
I400
sg17
g13
sg18
g13
sg19
S'/Library/Fonts/Silom.ttf'
p1425
sg21
g22
sbag7
(g8
g9
NtRp1426
(dp1427
g12
g41
sg14
S'TeX Gyre Schola'
p1428
sg16
I400
sg17
g13
sg18
g13
sg19
S'/Library/Fonts/TeX Gyre/texgyreschola-italic.otf'
p1429
sg21
g22
sbag7
(g8
g9
NtRp1430
(dp1431
g12
g46
sg14
S'Mshtakan'
p1432
sg16
I700
sg17
g13
sg18
g13
sg19
S'/Library/Fonts/MshtakanBoldOblique.ttf'
p1433
sg21
g22
sbag7
(g8
g9
NtRp1434
(dp1435
g12
g13
sg14
S'Yuppy SC'
p1436
sg16
I400
sg17
g13
sg18
g13
sg19
S'/Library/Fonts/\xe9\x9b\x85\xe7\x97\x9e-\xe7\xae\x80.otf'
p1437
sg21
g22
sbag7
(g8
g9
NtRp1438
(dp1439
g12
g13
sg14
S'Luxi Mono'
p1440
sg16
I400
sg17
g13
sg18
g13
sg19
S'/usr/X11/lib/X11/fonts/TTF/luximr.ttf'
p1441
sg21
g22
sbag7
(g8
g9
NtRp1442
(dp1443
g12
g46
sg14
S'Latin Modern Mono Light Cond'
p1444
sg16
I200
sg17
g172
sg18
g13
sg19
S'/Library/Fonts/Latin Modern/lmmonoltcond10-oblique.otf'
p1445
sg21
g22
sbag7
(g8
g9
NtRp1446
(dp1447
g12
g13
sg14
S'Adobe Fan Heiti Std'
p1448
sg16
I700
sg17
g13
sg18
g13
sg19
S'/Library/Fonts/AdobeFanHeitiStd-Bold.otf'
p1449
sg21
g22
sbag7
(g8
g9
NtRp1450
(dp1451
g12
g13
sg14
S'Kozuka Gothic Pr6N'
p1452
sg16
I700
sg17
g13
sg18
g13
sg19
S'/Library/Fonts/KozGoPr6N-Heavy.otf'
p1453
sg21
g22
sbag7
(g8
g9
NtRp1454
(dp1455
g12
g13
sg14
S'Gulim'
p1456
sg16
I400
sg17
g13
sg18
g13
sg19
S'/Library/Fonts/Microsoft/Gulim.ttf'
p1457
sg21
g22
sbag7
(g8
g9
NtRp1458
(dp1459
g12
g13
sg14
S'Lao Sangam MN'
p1460
sg16
I400
sg17
g13
sg18
g13
sg19
S'/Library/Fonts/Lao Sangam MN.ttf'
p1461
sg21
g22
sbag7
(g8
g9
NtRp1462
(dp1463
g12
g13
sg14
S'Goha-Tibeb Zemen'
p1464
sg16
I400
sg17
g13
sg18
g13
sg19
S'/usr/X11R6/lib/X11/fonts/TTF/GohaTibebZemen.ttf'
p1465
sg21
g22
sbag7
(g8
g9
NtRp1466
(dp1467
g12
g13
sg14
S'KufiStandardGK'
p1468
sg16
I400
sg17
g13
sg18
g13
sg19
S'/Library/Fonts/KufiStandardGK.ttf'
p1469
sg21
g22
sbag7
(g8
g9
NtRp1470
(dp1471
g12
g41
sg14
S'Serto Jerusalem'
p1472
sg16
I400
sg17
g13
sg18
g13
sg19
S'/usr/X11R6/lib/X11/fonts/OTF/SyrCOMJerusalemItalic.otf'
p1473
sg21
g22
sbag7
(g8
g9
NtRp1474
(dp1475
g12
g13
sg14
S'Latin Modern Mono Caps'
p1476
sg16
I400
sg17
g13
sg18
g13
sg19
S'/Library/Fonts/Latin Modern/lmmonocaps10-regular.otf'
p1477
sg21
g22
sbag7
(g8
g9
NtRp1478
(dp1479
g12
g13
sg14
S'Hei'
p1480
sg16
I400
sg17
g13
sg18
g13
sg19
S'/Library/Fonts/Hei.ttf'
p1481
sg21
g22
sbag7
(g8
g9
NtRp1482
(dp1483
g12
g41
sg14
S'Latin Modern Roman'
p1484
sg16
I500
sg17
g13
sg18
g13
sg19
S'/Library/Fonts/Latin Modern/lmroman9-italic.otf'
p1485
sg21
g22
sbag7
(g8
g9
NtRp1486
(dp1487
g12
g13
sg14
S'TeX Gyre Schola'
p1488
sg16
I700
sg17
g13
sg18
g13
sg19
S'/Library/Fonts/TeX Gyre/texgyreschola-bold.otf'
p1489
sg21
g22
sbag7
(g8
g9
NtRp1490
(dp1491
g12
g41
sg14
S'Cambria'
p1492
sg16
I700
sg17
g13
sg18
g13
sg19
S'/Library/Fonts/Microsoft/Cambria Bold Italic.ttf'
p1493
sg21
g22
sbag7
(g8
g9
NtRp1494
(dp1495
g12
g13
sg14
S'Gabriola'
p1496
sg16
I400
sg17
g13
sg18
g13
sg19
S'/Library/Fonts/Microsoft/Gabriola.ttf'
p1497
sg21
g22
sbag7
(g8
g9
NtRp1498
(dp1499
g12
g13
sg14
S'Hiragino Mincho ProN'
p1500
sg16
I400
sg17
g13
sg18
g13
sg19
S'/System/Library/Fonts/\xe3\x83\x92\xe3\x83\xa9\xe3\x82\xad\xe3\x82\x99\xe3\x83\x8e\xe6\x98\x8e\xe6\x9c\x9d ProN W3.otf'
p1501
sg21
g22
sbag7
(g8
g9
NtRp1502
(dp1503
g12
g41
sg14
S'Adobe Caslon Pro'
p1504
sg16
I700
sg17
g13
sg18
g13
sg19
S'/Library/Fonts/ACaslonPro-BoldItalic.otf'
p1505
sg21
g22
sbag7
(g8
g9
NtRp1506
(dp1507
g12
g13
sg14
S'Tallys'
p1508
sg16
I400
sg17
g13
sg18
g13
sg19
S'/Users/andrea/Library/Fonts/Tallys_15.otf'
p1509
sg21
g22
sbag7
(g8
g9
NtRp1510
(dp1511
g12
g41
sg14
S'Adobe Caslon Pro'
p1512
sg16
I700
sg17
g13
sg18
g13
sg19
S'/Library/Fonts/ACaslonPro-SemiboldItalic.otf'
p1513
sg21
g22
sbag7
(g8
g9
NtRp1514
(dp1515
g12
g13
sg14
S'Garamond Premier Pro'
p1516
sg16
I700
sg17
g13
sg18
g13
sg19
S'/Library/Fonts/GaramondPremrPro-Smbd.otf'
p1517
sg21
g22
sbag7
(g8
g9
NtRp1518
(dp1519
g12
g41
sg14
S'Franklin Gothic Heavy'
p1520
sg16
I800
sg17
g13
sg18
g13
sg19
S'/Users/andrea/Library/Fonts/FRAHVIT.TTF'
p1521
sg21
g22
sbag7
(g8
g9
NtRp1522
(dp1523
g12
g41
sg14
S'TeX Gyre Heros'
p1524
sg16
I700
sg17
g13
sg18
g13
sg19
S'/Library/Fonts/TeX Gyre/texgyreheros-bolditalic.otf'
p1525
sg21
g22
sbag7
(g8
g9
NtRp1526
(dp1527
g12
g41
sg14
S'Arno Pro'
p1528
sg16
I400
sg17
g13
sg18
g13
sg19
S'/Library/Fonts/ArnoPro-ItalicSubhead.otf'
p1529
sg21
g22
sbag7
(g8
g9
NtRp1530
(dp1531
g12
g13
sg14
S'Adobe Naskh'
p1532
sg16
I500
sg17
g13
sg18
g13
sg19
S'/Library/Fonts/AdobeNaskh-Medium.otf'
p1533
sg21
g22
sbag7
(g8
g9
NtRp1534
(dp1535
g12
g13
sg14
S'Latin Modern Roman'
p1536
sg16
I700
sg17
g13
sg18
g13
sg19
S'/Library/Fonts/Latin Modern/lmroman8-bold.otf'
p1537
sg21
g22
sbag7
(g8
g9
NtRp1538
(dp1539
g12
g13
sg14
S'OCR A Std'
p1540
sg16
I400
sg17
g13
sg18
g13
sg19
S'/Library/Fonts/OCRAStd.otf'
p1541
sg21
g22
sbag7
(g8
g9
NtRp1542
(dp1543
g12
g13
sg14
S'Luxi Mono'
p1544
sg16
I700
sg17
g13
sg18
g13
sg19
S'/usr/X11/lib/X11/fonts/TTF/luximb.ttf'
p1545
sg21
g22
sbag7
(g8
g9
NtRp1546
(dp1547
g12
g13
sg14
S'Latin Modern Roman'
p1548
sg16
I400
sg17
g13
sg18
g13
sg19
S'/Library/Fonts/Latin Modern/lmroman17-regular.otf'
p1549
sg21
g22
sbag7
(g8
g9
NtRp1550
(dp1551
g12
g13
sg14
S'Bickham Script Pro'
p1552
sg16
I400
sg17
g13
sg18
g13
sg19
S'/Library/Fonts/BickhamScriptPro-Regular.otf'
p1553
sg21
g22
sbag7
(g8
g9
NtRp1554
(dp1555
g12
g13
sg14
S'Arno Pro'
p1556
sg16
I400
sg17
g13
sg18
g13
sg19
S'/Library/Fonts/ArnoPro-Subhead.otf'
p1557
sg21
g22
sbag7
(g8
g9
NtRp1558
(dp1559
g12
g13
sg14
S'STIXSizeThreeSym'
p1560
sg16
I400
sg17
g13
sg18
g13
sg19
S'/Library/Fonts/STIXSizThreeSymReg.otf'
p1561
sg21
g22
sbag7
(g8
g9
NtRp1562
(dp1563
g12
g13
sg14
S'Latin725 BT'
p1564
sg16
I700
sg17
g13
sg18
g13
sg19
S'/Users/andrea/Library/Fonts/Lat725Bd.ttf'
p1565
sg21
g22
sbag7
(g8
g9
NtRp1566
(dp1567
g12
g41
sg14
S'Latin Modern Roman'
p1568
sg16
I500
sg17
g13
sg18
g13
sg19
S'/Library/Fonts/Latin Modern/lmroman10-italic.otf'
p1569
sg21
g22
sbag7
(g8
g9
NtRp1570
(dp1571
g12
g13
sg14
S'New Peninim MT'
p1572
sg16
I400
sg17
g13
sg18
g13
sg19
S'/Library/Fonts/NewPeninimMT.ttf'
p1573
sg21
g22
sbag7
(g8
g9
NtRp1574
(dp1575
g12
g13
sg14
S'TeX Gyre Heros'
p1576
sg16
I400
sg17
g13
sg18
g13
sg19
S'/Library/Fonts/TeX Gyre/texgyreheros-regular.otf'
p1577
sg21
g22
sbag7
(g8
g9
NtRp1578
(dp1579
g12
g41
sg14
S'Charis SIL'
p1580
sg16
I400
sg17
g13
sg18
g13
sg19
S'/Users/andrea/Library/Fonts/CharisSILI.ttf'
p1581
sg21
g22
sbag7
(g8
g9
NtRp1582
(dp1583
g12
g13
sg14
S'TeX Gyre Chorus'
p1584
sg16
I400
sg17
g13
sg18
g13
sg19
S'/Library/Fonts/TeX Gyre/texgyrechorus-mediumitalic.otf'
p1585
sg21
g22
sbag7
(g8
g9
NtRp1586
(dp1587
g12
g13
sg14
S'AppleGothic'
p1588
sg16
I400
sg17
g13
sg18
g13
sg19
S'/Library/Fonts/AppleGothic.ttf'
p1589
sg21
g22
sbag7
(g8
g9
NtRp1590
(dp1591
g12
g41
sg14
S'Liberation Mono'
p1592
sg16
I700
sg17
g13
sg18
g13
sg19
S'/Users/andrea/.fonts/LiberationMono_BoldItalic.ttf'
p1593
sg21
g22
sbag7
(g8
g9
NtRp1594
(dp1595
g12
g13
sg14
S'Code Bold'
p1596
sg16
I700
sg17
g13
sg18
g13
sg19
S'/Users/andrea/Library/Fonts/CODE Bold.otf'
p1597
sg21
g22
sbag7
(g8
g9
NtRp1598
(dp1599
g12
g46
sg14
S'TradeGothic'
p1600
sg16
I400
sg17
g13
sg18
g13
sg19
S'/Users/andrea/Library/Fonts/TradeGotObl.otf'
p1601
sg21
g22
sbag7
(g8
g9
NtRp1602
(dp1603
g12
g13
sg14
S'STIXIntegralsD'
p1604
sg16
I400
sg17
g13
sg18
g13
sg19
S'/Users/andrea/Library/Fonts/STIXIntDReg.otf'
p1605
sg21
g22
sbag7
(g8
g9
NtRp1606
(dp1607
g12
g13
sg14
S'Arial Narrow'
p1608
sg16
I400
sg17
g172
sg18
g13
sg19
S'/Library/Fonts/Arial Narrow.ttf'
p1609
sg21
g22
sbag7
(g8
g9
NtRp1610
(dp1611
g12
g13
sg14
S'Apple SD Gothic Neo'
p1612
sg16
I700
sg17
g13
sg18
g13
sg19
S'/System/Library/Fonts/AppleSDGothicNeo-Bold.otf'
p1613
sg21
g22
sbag7
(g8
g9
NtRp1614
(dp1615
g12
g46
sg14
S'Mshtakan'
p1616
sg16
I400
sg17
g13
sg18
g13
sg19
S'/Library/Fonts/MshtakanOblique.ttf'
p1617
sg21
g22
sbag7
(g8
g9
NtRp1618
(dp1619
g12
g13
sg14
S'Delicious'
p1620
sg16
I500
sg17
g13
sg18
g13
sg19
S'/Users/andrea/Library/Fonts/Delicious-Roman.otf'
p1621
sg21
g22
sbag7
(g8
g9
NtRp1622
(dp1623
g12
g41
sg14
S'Times New Roman'
p1624
sg16
I500
sg17
g13
sg18
g13
sg19
S'/Library/Fonts/Microsoft/Times New Roman Italic.ttf'
p1625
sg21
g22
sbag7
(g8
g9
NtRp1626
(dp1627
g12
g13
sg14
S'Garamond Premier Pro'
p1628
sg16
I400
sg17
g13
sg18
g13
sg19
S'/Library/Fonts/GaramondPremrPro.otf'
p1629
sg21
g22
sbag7
(g8
g9
NtRp1630
(dp1631
g12
g13
sg14
S'Corsiva Hebrew'
p1632
sg16
I400
sg17
g13
sg18
g13
sg19
S'/Library/Fonts/Corsiva.ttf'
p1633
sg21
g22
sbag7
(g8
g9
NtRp1634
(dp1635
g12
g46
sg14
S'Luxi Mono'
p1636
sg16
I400
sg17
g13
sg18
g13
sg19
S'/usr/X11/lib/X11/fonts/TTF/luximri.ttf'
p1637
sg21
g22
sbag7
(g8
g9
NtRp1638
(dp1639
g12
g13
sg14
S'Inconsolata-dz for Powerline'
p1640
sg16
I400
sg17
g13
sg18
g13
sg19
S'/Users/andrea/Library/Fonts/Inconsolata-dz-Powerline.otf'
p1641
sg21
g22
sbag7
(g8
g9
NtRp1642
(dp1643
g12
g13
sg14
S'Carolingia'
p1644
sg16
I400
sg17
g13
sg18
g13
sg19
S'/Users/andrea/Library/Fonts/Dorcla__.ttf'
p1645
sg21
g22
sbag7
(g8
g9
NtRp1646
(dp1647
g12
g46
sg14
S'TradeGothic'
p1648
sg16
I400
sg17
g172
sg18
g13
sg19
S'/Users/andrea/Library/Fonts/TradeGotConEigObl.otf'
p1649
sg21
g22
sbag7
(g8
g9
NtRp1650
(dp1651
g12
g13
sg14
S'Myanmar Sangam MN'
p1652
sg16
I400
sg17
g13
sg18
g13
sg19
S'/Library/Fonts/Myanmar Sangam MN.ttf'
p1653
sg21
g22
sbag7
(g8
g9
NtRp1654
(dp1655
g12
g41
sg14
S'Fontin Sans'
p1656
sg16
I700
sg17
g13
sg18
g13
sg19
S'/Users/andrea/Library/Fonts/Fontin_Sans_BI_45b.otf'
p1657
sg21
g22
sbag7
(g8
g9
NtRp1658
(dp1659
g12
g13
sg14
S'AndrewScript'
p1660
sg16
I400
sg17
g13
sg18
g13
sg19
S'/Users/andrea/Library/Fonts/andrewsc.ttf'
p1661
sg21
g22
sbag7
(g8
g9
NtRp1662
(dp1663
g12
g13
sg14
S'Arial Narrow'
p1664
sg16
I700
sg17
g172
sg18
g13
sg19
S'/Library/Fonts/Arial Narrow Bold.ttf'
p1665
sg21
g22
sbag7
(g8
g9
NtRp1666
(dp1667
g12
g13
sg14
S'Georgia'
p1668
sg16
I400
sg17
g13
sg18
g13
sg19
S'/Library/Fonts/Georgia.ttf'
p1669
sg21
g22
sbag7
(g8
g9
NtRp1670
(dp1671
g12
g41
sg14
S'Nueva Std'
p1672
sg16
I700
sg17
g172
sg18
g13
sg19
S'/Library/Fonts/NuevaStd-BoldCondItalic.otf'
p1673
sg21
g22
sbag7
(g8
g9
NtRp1674
(dp1675
g12
g13
sg14
S'Charlemagne Std'
p1676
sg16
I700
sg17
g13
sg18
g13
sg19
S'/Library/Fonts/CharlemagneStd-Bold.otf'
p1677
sg21
g22
sbag7
(g8
g9
NtRp1678
(dp1679
g12
g13
sg14
S'Prestige Elite Std'
p1680
sg16
I700
sg17
g13
sg18
g13
sg19
S'/Library/Fonts/PrestigeEliteStd-Bd.otf'
p1681
sg21
g22
sbag7
(g8
g9
NtRp1682
(dp1683
g12
g13
sg14
S'Constantia'
p1684
sg16
I700
sg17
g13
sg18
g13
sg19
S'/Library/Fonts/Microsoft/Constantia Bold.ttf'
p1685
sg21
g22
sbag7
(g8
g9
NtRp1686
(dp1687
g12
g13
sg14
S'Minion Pro'
p1688
sg16
I400
sg17
g13
sg18
g13
sg19
S'/Library/Fonts/MinionPro-Regular.otf'
p1689
sg21
g22
sbag7
(g8
g9
NtRp1690
(dp1691
g12
g13
sg14
S'Latin Modern Roman'
p1692
sg16
I700
sg17
g13
sg18
g13
sg19
S'/Library/Fonts/Latin Modern/lmroman6-bold.otf'
p1693
sg21
g22
sbag7
(g8
g9
NtRp1694
(dp1695
g12
g41
sg14
S'Times New Roman'
p1696
sg16
I700
sg17
g13
sg18
g13
sg19
S'/Library/Fonts/Times New Roman Bold Italic.ttf'
p1697
sg21
g22
sbag7
(g8
g9
NtRp1698
(dp1699
g12
g41
sg14
S'Arial Narrow'
p1700
sg16
I400
sg17
g172
sg18
g13
sg19
S'/Library/Fonts/Arial Narrow Italic.ttf'
p1701
sg21
g22
sbag7
(g8
g9
NtRp1702
(dp1703
g12
g13
sg14
S'Arno Pro'
p1704
sg16
I700
sg17
g13
sg18
g13
sg19
S'/Library/Fonts/ArnoPro-Smbd.otf'
p1705
sg21
g22
sbag7
(g8
g9
NtRp1706
(dp1707
g12
g13
sg14
S'LiHei Pro'
p1708
sg16
I400
sg17
g13
sg18
g13
sg19
S'/Library/Fonts/\xe5\x84\xb7\xe9\xbb\x91 Pro.ttf'
p1709
sg21
g22
sbag7
(g8
g9
NtRp1710
(dp1711
g12
g13
sg14
S'Apple SD Gothic Neo'
p1712
sg16
I400
sg17
g13
sg18
g13
sg19
S'/System/Library/Fonts/AppleSDGothicNeo-Regular.otf'
p1713
sg21
g22
sbag7
(g8
g9
NtRp1714
(dp1715
g12
g13
sg14
S'Latin Modern Sans Quotation'
p1716
sg16
I700
sg17
g13
sg18
g13
sg19
S'/Library/Fonts/Latin Modern/lmsansquot8-bold.otf'
p1717
sg21
g22
sbag7
(g8
g9
NtRp1718
(dp1719
g12
g13
sg14
S'Arial'
p1720
sg16
I700
sg17
g13
sg18
g13
sg19
S'/Library/Fonts/Microsoft/Arial Bold.ttf'
p1721
sg21
g22
sbag7
(g8
g9
NtRp1722
(dp1723
g12
g13
sg14
S'TradeGothic'
p1724
sg16
I700
sg17
g172
sg18
g13
sg19
S'/Users/andrea/Library/Fonts/TradeGotBolConTwe.otf'
p1725
sg21
g22
sbag7
(g8
g9
NtRp1726
(dp1727
g12
g13
sg14
S'Tw Cen MT'
p1728
sg16
I700
sg17
g13
sg18
g13
sg19
S'/Library/Fonts/Microsoft/Tw Cen MT Bold.ttf'
p1729
sg21
g22
sbag7
(g8
g9
NtRp1730
(dp1731
g12
g13
sg14
S'Plantagenet Cherokee'
p1732
sg16
I400
sg17
g13
sg18
g13
sg19
S'/Library/Fonts/PlantagenetCherokee.ttf'
p1733
sg21
g22
sbag7
(g8
g9
NtRp1734
(dp1735
g12
g13
sg14
S'BiauKai'
p1736
sg16
I400
sg17
g13
sg18
g13
sg19
S'/Library/Fonts/BiauKai.ttf'
p1737
sg21
g22
sbag7
(g8
g9
NtRp1738
(dp1739
g12
g13
sg14
S'STIXIntegralsUp'
p1740
sg16
I700
sg17
g13
sg18
g13
sg19
S'/Users/andrea/Library/Fonts/STIXIntUpBol.otf'
p1741
sg21
g22
sbag7
(g8
g9
NtRp1742
(dp1743
g12
g41
sg14
S'Brush Script MT'
p1744
sg16
I400
sg17
g13
sg18
g13
sg19
S'/Library/Fonts/Microsoft/Brush Script.ttf'
p1745
sg21
g22
sbag7
(g8
g9
NtRp1746
(dp1747
g12
g13
sg14
S'Liberation Serif'
p1748
sg16
I700
sg17
g13
sg18
g13
sg19
S'/Users/andrea/.fonts/LiberationSerif_Bold.ttf'
p1749
sg21
g22
sbag7
(g8
g9
NtRp1750
(dp1751
g12
g41
sg14
S'Tw Cen MT'
p1752
sg16
I700
sg17
g13
sg18
g13
sg19
S'/Library/Fonts/Microsoft/Tw Cen MT Bold Italic.ttf'
p1753
sg21
g22
sbag7
(g8
g9
NtRp1754
(dp1755
g12
g13
sg14
S'STIXVariants'
p1756
sg16
I400
sg17
g13
sg18
g13
sg19
S'/Library/Fonts/STIXVar.otf'
p1757
sg21
g22
sbag7
(g8
g9
NtRp1758
(dp1759
g12
g41
sg14
S'Candara'
p1760
sg16
I700
sg17
g13
sg18
g13
sg19
S'/Library/Fonts/Microsoft/Candara Bold Italic.ttf'
p1761
sg21
g22
sbag7
(g8
g9
NtRp1762
(dp1763
g12
g13
sg14
S'STIXIntegralsUpD'
p1764
sg16
I700
sg17
g13
sg18
g13
sg19
S'/Users/andrea/Library/Fonts/STIXIntUpDBol.otf'
p1765
sg21
g22
sbag7
(g8
g9
NtRp1766
(dp1767
g12
g13
sg14
S'Hiragino Kaku Gothic ProN'
p1768
sg16
I700
sg17
g13
sg18
g13
sg19
S'/System/Library/Fonts/\xe3\x83\x92\xe3\x83\xa9\xe3\x82\xad\xe3\x82\x99\xe3\x83\x8e\xe8\xa7\x92\xe3\x82\xb3\xe3\x82\x99 ProN W6.otf'
p1769
sg21
g22
sbag7
(g8
g9
NtRp1770
(dp1771
g12
g13
sg14
S'Latin Modern Mono'
p1772
sg16
I400
sg17
g13
sg18
g13
sg19
S'/Library/Fonts/Latin Modern/lmmono10-regular.otf'
p1773
sg21
g22
sbag7
(g8
g9
NtRp1774
(dp1775
g12
g13
sg14
S'Birch Std'
p1776
sg16
I400
sg17
g13
sg18
g13
sg19
S'/Library/Fonts/BirchStd.otf'
p1777
sg21
g22
sbag7
(g8
g9
NtRp1778
(dp1779
g12
g13
sg14
S'Cardo'
p1780
sg16
I400
sg17
g13
sg18
g13
sg19
S'/Users/andrea/Library/Fonts/Cardo98s.ttf'
p1781
sg21
g22
sbag7
(g8
g9
NtRp1782
(dp1783
g12
g13
sg14
S'Cambria Math'
p1784
sg16
I400
sg17
g13
sg18
g13
sg19
S'/Library/Fonts/Microsoft/Cambria Math.ttf'
p1785
sg21
g22
sbag7
(g8
g9
NtRp1786
(dp1787
g12
g13
sg14
S'Futura Md BT'
p1788
sg16
I700
sg17
g13
sg18
g13
sg19
S'/Users/andrea/Library/Fonts/Futura Bold BT.ttf'
p1789
sg21
g22
sbag7
(g8
g9
NtRp1790
(dp1791
g12
g41
sg14
S'Anonymous Pro'
p1792
sg16
I700
sg17
g13
sg18
g13
sg19
S'/Users/andrea/Library/Fonts/Anonymous Pro BI.ttf'
p1793
sg21
g22
sbag7
(g8
g9
NtRp1794
(dp1795
g12
g13
sg14
S'Fontin'
p1796
sg16
I700
sg17
g13
sg18
g13
sg19
S'/Users/andrea/Library/Fonts/Fontin-Bold.otf'
p1797
sg21
g22
sbag7
(g8
g9
NtRp1798
(dp1799
g12
g13
sg14
S'STIXGeneral'
p1800
sg16
I700
sg17
g13
sg18
g13
sg19
S'/Users/andrea/Library/Fonts/STIXGeneralBol.otf'
p1801
sg21
g22
sbag7
(g8
g9
NtRp1802
(dp1803
g12
g13
sg14
S'Latin Modern Sans Demi Cond'
p1804
sg16
I600
sg17
g172
sg18
g13
sg19
S'/Library/Fonts/Latin Modern/lmsansdemicond10-regular.otf'
p1805
sg21
g22
sbag7
(g8
g9
NtRp1806
(dp1807
g12
g13
sg14
S'Skia'
p1808
sg16
I400
sg17
g13
sg18
g13
sg19
S'/Library/Fonts/Skia.ttf'
p1809
sg21
g22
sbag7
(g8
g9
NtRp1810
(dp1811
g12
g13
sg14
S'Kozuka Gothic Pr6N'
p1812
sg16
I700
sg17
g13
sg18
g13
sg19
S'/Library/Fonts/KozGoPr6N-Bold.otf'
p1813
sg21
g22
sbag7
(g8
g9
NtRp1814
(dp1815
g12
g13
sg14
S'Adobe Arabic'
p1816
sg16
I400
sg17
g13
sg18
g13
sg19
S'/Library/Fonts/AdobeArabic-Regular.otf'
p1817
sg21
g22
sbag7
(g8
g9
NtRp1818
(dp1819
g12
g46
sg14
S'Luxi Sans'
p1820
sg16
I700
sg17
g13
sg18
g13
sg19
S'/usr/X11R6/lib/X11/fonts/TTF/luxisbi.ttf'
p1821
sg21
g22
sbag7
(g8
g9
NtRp1822
(dp1823
g12
g13
sg14
S'Serto Jerusalem'
p1824
sg16
I400
sg17
g13
sg18
g13
sg19
S'/usr/X11R6/lib/X11/fonts/OTF/SyrCOMJerusalem.otf'
p1825
sg21
g22
sbag7
(g8
g9
NtRp1826
(dp1827
g12
g13
sg14
S'AW Conqueror Sans'
p1828
sg16
I200
sg17
g13
sg18
g13
sg19
S'/Users/andrea/Library/Fonts/AWConquerorSans-Light.otf'
p1829
sg21
g22
sbag7
(g8
g9
NtRp1830
(dp1831
g12
g13
sg14
S'Kozuka Mincho Pro'
p1832
sg16
I700
sg17
g13
sg18
g13
sg19
S'/Library/Fonts/KozMinPro-Heavy.otf'
p1833
sg21
g22
sbag7
(g8
g9
NtRp1834
(dp1835
g12
g13
sg14
S'Trade Gothic LH'
p1836
sg16
I700
sg17
g13
sg18
g13
sg19
S'/Users/andrea/Library/Fonts/TradeGotLHBolExt.otf'
p1837
sg21
g22
sbag7
(g8
g9
NtRp1838
(dp1839
g12
g13
sg14
S'STFangsong'
p1840
sg16
I400
sg17
g13
sg18
g13
sg19
S'/Library/Fonts/\xe5\x8d\x8e\xe6\x96\x87\xe4\xbb\xbf\xe5\xae\x8b.ttf'
p1841
sg21
g22
sbag7
(g8
g9
NtRp1842
(dp1843
g12
g13
sg14
S'Arno Pro'
p1844
sg16
I700
sg17
g13
sg18
g13
sg19
S'/Library/Fonts/ArnoPro-Bold.otf'
p1845
sg21
g22
sbag7
(g8
g9
NtRp1846
(dp1847
g12
g13
sg14
S'Lithos Pro'
p1848
sg16
I400
sg17
g13
sg18
g13
sg19
S'/Library/Fonts/LithosPro-Regular.otf'
p1849
sg21
g22
sbag7
(g8
g9
NtRp1850
(dp1851
g12
g13
sg14
S'Charis SIL'
p1852
sg16
I700
sg17
g13
sg18
g13
sg19
S'/Users/andrea/Library/Fonts/CharisSILB.ttf'
p1853
sg21
g22
sbag7
(g8
g9
NtRp1854
(dp1855
g12
g13
sg14
S'Trajan Pro'
p1856
sg16
I400
sg17
g13
sg18
g13
sg19
S'/Library/Fonts/TrajanPro-Regular.otf'
p1857
sg21
g22
sbag7
(g8
g9
NtRp1858
(dp1859
g12
g13
sg14
S'Kozuka Mincho Pro'
p1860
sg16
I700
sg17
g13
sg18
g13
sg19
S'/Library/Fonts/KozMinPro-Bold.otf'
p1861
sg21
g22
sbag7
(g8
g9
NtRp1862
(dp1863
g12
g13
sg14
S'Perpetua'
p1864
sg16
I400
sg17
g13
sg18
g13
sg19
S'/Library/Fonts/Microsoft/Perpetua.ttf'
p1865
sg21
g22
sbag7
(g8
g9
NtRp1866
(dp1867
g12
g13
sg14
S'Nueva Std'
p1868
sg16
I700
sg17
g172
sg18
g13
sg19
S'/Library/Fonts/NuevaStd-BoldCond.otf'
p1869
sg21
g22
sbag7
(g8
g9
NtRp1870
(dp1871
g12
g13
sg14
S'Cambria'
p1872
sg16
I700
sg17
g13
sg18
g13
sg19
S'/Library/Fonts/Microsoft/Cambria Bold.ttf'
p1873
sg21
g22
sbag7
(g8
g9
NtRp1874
(dp1875
g12
g41
sg14
S'TeX Gyre Pagella'
p1876
sg16
I400
sg17
g13
sg18
g13
sg19
S'/Library/Fonts/TeX Gyre/texgyrepagella-italic.otf'
p1877
sg21
g22
sbag7
(g8
g9
NtRp1878
(dp1879
g12
g13
sg14
S'Latin Modern Sans'
p1880
sg16
I400
sg17
g13
sg18
g13
sg19
S'/Library/Fonts/Latin Modern/lmsans10-regular.otf'
p1881
sg21
g22
sbag7
(g8
g9
NtRp1882
(dp1883
g12
g41
sg14
S'Courier New'
p1884
sg16
I700
sg17
g13
sg18
g13
sg19
S'/Library/Fonts/Courier New Bold Italic.ttf'
p1885
sg21
g22
sbag7
(g8
g9
NtRp1886
(dp1887
g12
g13
sg14
S'Neu Eichmass'
p1888
sg16
I700
sg17
g13
sg18
g13
sg19
S'/Users/andrea/Library/Fonts/Neu_Eichmass.ttf'
p1889
sg21
g22
sbag7
(g8
g9
NtRp1890
(dp1891
g12
g13
sg14
S'STIXGeneral'
p1892
sg16
I400
sg17
g13
sg18
g13
sg19
S'/Users/andrea/Library/Fonts/STIXGeneral.otf'
p1893
sg21
g22
sbag7
(g8
g9
NtRp1894
(dp1895
g12
g13
sg14
S'Arial Rounded MT Bold'
p1896
sg16
I700
sg17
g13
sg18
g13
sg19
S'/Library/Fonts/Arial Rounded Bold.ttf'
p1897
sg21
g22
sbag7
(g8
g9
NtRp1898
(dp1899
g12
g13
sg14
S'Devanagari MT'
p1900
sg16
I700
sg17
g13
sg18
g13
sg19
S'/Library/Fonts/DevanagariMTBold.ttf'
p1901
sg21
g22
sbag7
(g8
g9
NtRp1902
(dp1903
g12
g13
sg14
S'Trajan Pro'
p1904
sg16
I700
sg17
g13
sg18
g13
sg19
S'/Library/Fonts/TrajanPro-Bold.otf'
p1905
sg21
g22
sbag7
(g8
g9
NtRp1906
(dp1907
g12
g41
sg14
S'Adobe Arabic'
p1908
sg16
I700
sg17
g13
sg18
g13
sg19
S'/Library/Fonts/AdobeArabic-BoldItalic.otf'
p1909
sg21
g22
sbag7
(g8
g9
NtRp1910
(dp1911
g12
g41
sg14
S'Arno Pro'
p1912
sg16
I700
sg17
g13
sg18
g13
sg19
S'/Library/Fonts/ArnoPro-SmbdItalicCaption.otf'
p1913
sg21
g22
sbag7
(g8
g9
NtRp1914
(dp1915
g12
g13
sg14
S'Kozuka Gothic Pr6N'
p1916
sg16
I400
sg17
g13
sg18
g13
sg19
S'/Library/Fonts/KozGoPr6N-Light.otf'
p1917
sg21
g22
sbag7
(g8
g9
NtRp1918
(dp1919
g12
g13
sg14
S'Latin Modern Roman'
p1920
sg16
I700
sg17
g13
sg18
g13
sg19
S'/Library/Fonts/Latin Modern/lmroman9-bold.otf'
p1921
sg21
g22
sbag7
(g8
g9
NtRp1922
(dp1923
g12
g41
sg14
S'Franklin Gothic Medium'
p1924
sg16
I500
sg17
g13
sg18
g13
sg19
S'/Library/Fonts/Microsoft/Franklin Gothic Medium Italic.ttf'
p1925
sg21
g22
sbag7
(g8
g9
NtRp1926
(dp1927
g12
g46
sg14
S'TradeGothic'
p1928
sg16
I700
sg17
g13
sg18
g13
sg19
S'/Users/andrea/Library/Fonts/TradeGotBolObl.otf'
p1929
sg21
g22
sbag7
(g8
g9
NtRp1930
(dp1931
g12
g13
sg14
S'Latin Modern Mono'
p1932
sg16
I400
sg17
g13
sg18
g13
sg19
S'/Library/Fonts/Latin Modern/lmmono12-regular.otf'
p1933
sg21
g22
sbag7
(g8
g9
NtRp1934
(dp1935
g12
g13
sg14
S'Franklin Gothic Heavy'
p1936
sg16
I800
sg17
g13
sg18
g13
sg19
S'/Users/andrea/Library/Fonts/FRAHV.TTF'
p1937
sg21
g22
sbag7
(g8
g9
NtRp1938
(dp1939
g12
g13
sg14
S'Khmer Sangam MN'
p1940
sg16
I400
sg17
g13
sg18
g13
sg19
S'/Library/Fonts/Khmer Sangam MN.ttf'
p1941
sg21
g22
sbag7
(g8
g9
NtRp1942
(dp1943
g12
g13
sg14
S'Serto Urhoy'
p1944
sg16
I700
sg17
g13
sg18
g13
sg19
S'/usr/X11/lib/X11/fonts/OTF/SyrCOMUrhoyBold.otf'
p1945
sg21
g22
sbag7
(g8
g9
NtRp1946
(dp1947
g12
g13
sg14
S'InaiMathi'
p1948
sg16
I400
sg17
g13
sg18
g13
sg19
S'/Library/Fonts/InaiMathi.ttf'
p1949
sg21
g22
sbag7
(g8
g9
NtRp1950
(dp1951
g12
g13
sg14
S'Latin Modern Roman Caps'
p1952
sg16
I400
sg17
g13
sg18
g13
sg19
S'/Library/Fonts/Latin Modern/lmromancaps10-regular.otf'
p1953
sg21
g22
sbag7
(g8
g9
NtRp1954
(dp1955
g12
g41
sg14
S'TeX Gyre Bonum'
p1956
sg16
I400
sg17
g13
sg18
g13
sg19
S'/Library/Fonts/TeX Gyre/texgyrebonum-italic.otf'
p1957
sg21
g22
sbag7
(g8
g9
NtRp1958
(dp1959
g12
g13
sg14
S'Cambria'
p1960
sg16
I400
sg17
g13
sg18
g13
sg19
S'/Library/Fonts/Microsoft/Cambria.ttf'
p1961
sg21
g22
sbag7
(g8
g9
NtRp1962
(dp1963
g12
g41
sg14
S'Latin Modern Roman'
p1964
sg16
I700
sg17
g13
sg18
g13
sg19
S'/Library/Fonts/Latin Modern/lmroman10-bolditalic.otf'
p1965
sg21
g22
sbag7
(g8
g9
NtRp1966
(dp1967
g12
g13
sg14
S'Batang'
p1968
sg16
I400
sg17
g13
sg18
g13
sg19
S'/Library/Fonts/Microsoft/Batang.ttf'
p1969
sg21
g22
sbag7
(g8
g9
NtRp1970
(dp1971
g12
g13
sg14
S'Kozuka Gothic Pro'
p1972
sg16
I400
sg17
g13
sg18
g13
sg19
S'/Library/Fonts/KozGoPro-Light.otf'
p1973
sg21
g22
sbag7
(g8
g9
NtRp1974
(dp1975
g12
g13
sg14
S'Kozuka Mincho Pro'
p1976
sg16
I400
sg17
g13
sg18
g13
sg19
S'/Library/Fonts/KozMinPro-Medium.otf'
p1977
sg21
g22
sbag7
(g8
g9
NtRp1978
(dp1979
g12
g13
sg14
S'Bickham Script Pro'
p1980
sg16
I700
sg17
g13
sg18
g13
sg19
S'/Library/Fonts/BickhamScriptPro-Bold.otf'
p1981
sg21
g22
sbag7
(g8
g9
NtRp1982
(dp1983
g12
g13
sg14
S'Minion Pro'
p1984
sg16
I700
sg17
g13
sg18
g13
sg19
S'/Library/Fonts/MinionPro-Semibold.otf'
p1985
sg21
g22
sbag7
(g8
g9
NtRp1986
(dp1987
g12
g13
sg14
S'number one'
p1988
sg16
I400
sg17
g13
sg18
g13
sg19
S'/Users/andrea/Library/Fonts/number_one.ttf'
p1989
sg21
g22
sbag7
(g8
g9
NtRp1990
(dp1991
g12
g41
sg14
S'TeX Gyre Heros Cn'
p1992
sg16
I400
sg17
g13
sg18
g13
sg19
S'/Library/Fonts/TeX Gyre/texgyreheroscn-italic.otf'
p1993
sg21
g22
sbag7
(g8
g9
NtRp1994
(dp1995
g12
g13
sg14
S'Europe Underground'
p1996
sg16
I200
sg17
g13
sg18
g13
sg19
S'/Users/andrea/Library/Fonts/EuropeUnderground_light.ttf'
p1997
sg21
g22
sbag7
(g8
g9
NtRp1998
(dp1999
g12
g13
sg14
S'Golem'
p2000
sg16
I400
sg17
g13
sg18
g13
sg19
S'/Users/andrea/Library/Fonts/golem.ttf'
p2001
sg21
g22
sbag7
(g8
g9
NtRp2002
(dp2003
g12
g41
sg14
S'Letter Gothic Std'
p2004
sg16
I400
sg17
g13
sg18
g13
sg19
S'/Library/Fonts/LetterGothicStd-Slanted.otf'
p2005
sg21
g22
sbag7
(g8
g9
NtRp2006
(dp2007
g12
g13
sg14
S'DecoType Naskh'
p2008
sg16
I400
sg17
g13
sg18
g13
sg19
S'/Library/Fonts/DecoTypeNaskh.ttf'
p2009
sg21
g22
sbag7
(g8
g9
NtRp2010
(dp2011
g12
g13
sg14
S'TeX Gyre Termes'
p2012
sg16
I700
sg17
g13
sg18
g13
sg19
S'/Library/Fonts/TeX Gyre/texgyretermes-bold.otf'
p2013
sg21
g22
sbag7
(g8
g9
NtRp2014
(dp2015
g12
g13
sg14
S'Latin Modern Roman Slanted'
p2016
sg16
I400
sg17
g13
sg18
g13
sg19
S'/Library/Fonts/Latin Modern/lmromanslant10-regular.otf'
p2017
sg21
g22
sbag7
(g8
g9
NtRp2018
(dp2019
g12
g41
sg14
S'Palatino Linotype'
p2020
sg16
I700
sg17
g13
sg18
g13
sg19
S'/Users/andrea/Library/Fonts/palabi.ttf'
p2021
sg21
g22
sbag7
(g8
g9
NtRp2022
(dp2023
g12
g41
sg14
S'Myriad Pro'
p2024
sg16
I700
sg17
g13
sg18
g13
sg19
S'/Library/Fonts/MyriadPro-BoldIt.otf'
p2025
sg21
g22
sbag7
(g8
g9
NtRp2026
(dp2027
g12
g46
sg14
S'TradeGothic'
p2028
sg16
I200
sg17
g13
sg18
g13
sg19
S'/Users/andrea/Library/Fonts/TradeGotLigObl.otf'
p2029
sg21
g22
sbag7
(g8
g9
NtRp2030
(dp2031
g12
g13
sg14
S'HeadLineA'
p2032
sg16
I400
sg17
g13
sg18
g13
sg19
S'/Library/Fonts/HeadlineA.ttf'
p2033
sg21
g22
sbag7
(g8
g9
NtRp2034
(dp2035
g12
g41
sg14
S'Aladdin'
p2036
sg16
I400
sg17
g13
sg18
g13
sg19
S'/Users/andrea/Library/Fonts/ALADDNI.TTF'
p2037
sg21
g22
sbag7
(g8
g9
NtRp2038
(dp2039
g12
g13
sg14
S'STIXIntegralsD'
p2040
sg16
I700
sg17
g13
sg18
g13
sg19
S'/Users/andrea/Library/Fonts/STIXIntDBol.otf'
p2041
sg21
g22
sbag7
(g8
g9
NtRp2042
(dp2043
g12
g13
sg14
S'Arial Hebrew'
p2044
sg16
I700
sg17
g13
sg18
g13
sg19
S'/Library/Fonts/ArialHBBold.ttf'
p2045
sg21
g22
sbag7
(g8
g9
NtRp2046
(dp2047
g12
g13
sg14
S'.Keyboard'
p2048
sg16
I400
sg17
g13
sg18
g13
sg19
S'/System/Library/Fonts/Keyboard.ttf'
p2049
sg21
g22
sbag7
(g8
g9
NtRp2050
(dp2051
g12
g13
sg14
S'Hiragino Kaku Gothic Std'
p2052
sg16
I700
sg17
g13
sg18
g13
sg19
S'/Library/Fonts/\xe3\x83\x92\xe3\x83\xa9\xe3\x82\xad\xe3\x82\x99\xe3\x83\x8e\xe8\xa7\x92\xe3\x82\xb3\xe3\x82\x99 Std W8.otf'
p2053
sg21
g22
sbag7
(g8
g9
NtRp2054
(dp2055
g12
g13
sg14
S'Lucida Sans Unicode'
p2056
sg16
I400
sg17
g13
sg18
g13
sg19
S'/Library/Fonts/Microsoft/Lucida Sans Unicode.ttf'
p2057
sg21
g22
sbag7
(g8
g9
NtRp2058
(dp2059
g12
g13
sg14
S'Hiragino Sans GB'
p2060
sg16
I700
sg17
g13
sg18
g13
sg19
S'/Library/Fonts/Hiragino Sans GB W6.otf'
p2061
sg21
g22
sbag7
(g8
g9
NtRp2062
(dp2063
g12
g13
sg14
S'Geeza Pro'
p2064
sg16
I400
sg17
g13
sg18
g13
sg19
S'/System/Library/Fonts/Geeza Pro.ttf'
p2065
sg21
g22
sbag7
(g8
g9
NtRp2066
(dp2067
g12
g41
sg14
S'Consolas'
p2068
sg16
I700
sg17
g13
sg18
g13
sg19
S'/Library/Fonts/Microsoft/Consolas Bold Italic.ttf'
p2069
sg21
g22
sbag7
(g8
g9
NtRp2070
(dp2071
g12
g13
sg14
S'Microsoft Sans Serif'
p2072
sg16
I400
sg17
g13
sg18
g13
sg19
S'/Library/Fonts/Microsoft Sans Serif.ttf'
p2073
sg21
g22
sbag7
(g8
g9
NtRp2074
(dp2075
g12
g13
sg14
S'TeX Gyre Schola'
p2076
sg16
I400
sg17
g13
sg18
g13
sg19
S'/Library/Fonts/TeX Gyre/texgyreschola-regular.otf'
p2077
sg21
g22
sbag7
(g8
g9
NtRp2078
(dp2079
g12
g13
sg14
S'Inconsolata'
p2080
sg16
I400
sg17
g13
sg18
g13
sg19
S'/Users/andrea/Library/Fonts/Inconsolata.otf'
p2081
sg21
g22
sbag7
(g8
g9
NtRp2082
(dp2083
g12
g13
sg14
S'Lucida Console'
p2084
sg16
I400
sg17
g13
sg18
g13
sg19
S'/Library/Fonts/Microsoft/Lucida Console.ttf'
p2085
sg21
g22
sbag7
(g8
g9
NtRp2086
(dp2087
g12
g13
sg14
S'Myriad Pro'
p2088
sg16
I700
sg17
g13
sg18
g13
sg19
S'/Library/Fonts/MyriadPro-Bold.otf'
p2089
sg21
g22
sbag7
(g8
g9
NtRp2090
(dp2091
g12
g13
sg14
S'AladdinExpanded'
p2092
sg16
I400
sg17
g13
sg18
g13
sg19
S'/Users/andrea/Library/Fonts/ALADDNE.TTF'
p2093
sg21
g22
sbag7
(g8
g9
NtRp2094
(dp2095
g12
g13
sg14
S'Hiragino Kaku Gothic Pro'
p2096
sg16
I400
sg17
g13
sg18
g13
sg19
S'/Library/Fonts/\xe3\x83\x92\xe3\x83\xa9\xe3\x82\xad\xe3\x82\x99\xe3\x83\x8e\xe8\xa7\x92\xe3\x82\xb3\xe3\x82\x99 Pro W3.otf'
p2097
sg21
g22
sbag7
(g8
g9
NtRp2098
(dp2099
g12
g13
sg14
S'Latin Modern Mono Light'
p2100
sg16
I400
sg17
g13
sg18
g13
sg19
S'/Library/Fonts/Latin Modern/lmmonolt10-regular.otf'
p2101
sg21
g22
sbag7
(g8
g9
NtRp2102
(dp2103
g12
g13
sg14
S'ARCFont'
p2104
sg16
I400
sg17
g13
sg18
g13
sg19
S'/Users/andrea/Library/Fonts/ARCfont.ttf'
p2105
sg21
g22
sbag7
(g8
g9
NtRp2106
(dp2107
g12
g13
sg14
S'STIXIntegralsUpD'
p2108
sg16
I400
sg17
g13
sg18
g13
sg19
S'/Users/andrea/Library/Fonts/STIXIntUpDReg.otf'
p2109
sg21
g22
sbag7
(g8
g9
NtRp2110
(dp2111
g12
g13
sg14
S'Giddyup Std'
p2112
sg16
I400
sg17
g13
sg18
g13
sg19
S'/Library/Fonts/GiddyupStd.otf'
p2113
sg21
g22
sbag7
(g8
g9
NtRp2114
(dp2115
g12
g13
sg14
S'Lutin_Paniquangoisse'
p2116
sg16
I400
sg17
g13
sg18
g13
sg19
S'/Users/andrea/Library/Fonts/Lutin_Paniquangoisse.ttf'
p2117
sg21
g22
sbag7
(g8
g9
NtRp2118
(dp2119
g12
g13
sg14
S'Apple Chancery'
p2120
sg16
I400
sg17
g13
sg18
g13
sg19
S'/Library/Fonts/Apple Chancery.ttf'
p2121
sg21
g22
sbag7
(g8
g9
NtRp2122
(dp2123
g12
g41
sg14
S'Arno Pro'
p2124
sg16
I700
sg17
g13
sg18
g13
sg19
S'/Library/Fonts/ArnoPro-BoldItalicDisplay.otf'
p2125
sg21
g22
sbag7
(g8
g9
NtRp2126
(dp2127
g12
g13
sg14
S'STIXIntegralsUpSm'
p2128
sg16
I700
sg17
g13
sg18
g13
sg19
S'/Library/Fonts/STIXIntUpSmBol.otf'
p2129
sg21
g22
sbag7
(g8
g9
NtRp2130
(dp2131
g12
g41
sg14
S'Myriad Hebrew'
p2132
sg16
I700
sg17
g13
sg18
g13
sg19
S'/Library/Fonts/MyriadHebrew-BoldIt.otf'
p2133
sg21
g22
sbag7
(g8
g9
NtRp2134
(dp2135
g12
g46
sg14
S'Latin Modern Mono Light'
p2136
sg16
I700
sg17
g13
sg18
g13
sg19
S'/Library/Fonts/Latin Modern/lmmonolt10-boldoblique.otf'
p2137
sg21
g22
sbag7
(g8
g9
NtRp2138
(dp2139
g12
g13
sg14
S'STIXSizeOneSym'
p2140
sg16
I700
sg17
g13
sg18
g13
sg19
S'/Library/Fonts/STIXSizOneSymBol.otf'
p2141
sg21
g22
sbag7
(g8
g9
NtRp2142
(dp2143
g12
g13
sg14
S'Palatino Linotype'
p2144
sg16
I400
sg17
g13
sg18
g13
sg19
S'/Library/Fonts/Microsoft/Palatino Linotype.ttf'
p2145
sg21
g22
sbag7
(g8
g9
NtRp2146
(dp2147
g12
g13
sg14
S'Adobe Hebrew'
p2148
sg16
I400
sg17
g13
sg18
g13
sg19
S'/Library/Fonts/AdobeHebrew-Regular.otf'
p2149
sg21
g22
sbag7
(g8
g9
NtRp2150
(dp2151
g12
g13
sg14
S'STIXSizeTwoSym'
p2152
sg16
I400
sg17
g13
sg18
g13
sg19
S'/Library/Fonts/STIXSizTwoSymReg.otf'
p2153
sg21
g22
sbag7
(g8
g9
NtRp2154
(dp2155
g12
g41
sg14
S'Arno Pro'
p2156
sg16
I400
sg17
g13
sg18
g13
sg19
S'/Library/Fonts/ArnoPro-ItalicDisplay.otf'
p2157
sg21
g22
sbag7
(g8
g9
NtRp2158
(dp2159
g12
g13
sg14
S'New Peninim MT'
p2160
sg16
I700
sg17
g13
sg18
g13
sg19
S'/Library/Fonts/NewPeninimMTBold.ttf'
p2161
sg21
g22
sbag7
(g8
g9
NtRp2162
(dp2163
g12
g13
sg14
S'AW Conqueror Carved'
p2164
sg16
I400
sg17
g13
sg18
g13
sg19
S'/Users/andrea/Library/Fonts/AWConquerorCarved-Three.otf'
p2165
sg21
g22
sbag7
(g8
g9
NtRp2166
(dp2167
g12
g13
sg14
S'Georgia'
p2168
sg16
I700
sg17
g13
sg18
g13
sg19
S'/Library/Fonts/Georgia Bold.ttf'
p2169
sg21
g22
sbag7
(g8
g9
NtRp2170
(dp2171
g12
g41
sg14
S'Fontin Sans'
p2172
sg16
I400
sg17
g13
sg18
g13
sg19
S'/Users/andrea/Library/Fonts/Fontin_Sans_I_45b.otf'
p2173
sg21
g22
sbag7
(g8
g9
NtRp2174
(dp2175
g12
g41
sg14
S'TeX Gyre Adventor'
p2176
sg16
I400
sg17
g13
sg18
g13
sg19
S'/Library/Fonts/TeX Gyre/texgyreadventor-italic.otf'
p2177
sg21
g22
sbag7
(g8
g9
NtRp2178
(dp2179
g12
g13
sg14
S'Liberation Sans'
p2180
sg16
I700
sg17
g13
sg18
g13
sg19
S'/Users/andrea/.fonts/LiberationSans_Bold.ttf'
p2181
sg21
g22
sbag7
(g8
g9
NtRp2182
(dp2183
g12
g13
sg14
S'Latin Modern Mono Light'
p2184
sg16
I700
sg17
g13
sg18
g13
sg19
S'/Library/Fonts/Latin Modern/lmmonolt10-bold.otf'
p2185
sg21
g22
sbag7
(g8
g9
NtRp2186
(dp2187
g12
g41
sg14
S'TeX Gyre Termes'
p2188
sg16
I400
sg17
g13
sg18
g13
sg19
S'/Library/Fonts/TeX Gyre/texgyretermes-italic.otf'
p2189
sg21
g22
sbag7
(g8
g9
NtRp2190
(dp2191
g12
g41
sg14
S'Delicious'
p2192
sg16
I400
sg17
g13
sg18
g13
sg19
S'/Users/andrea/Library/Fonts/Delicious-Italic.otf'
p2193
sg21
g22
sbag7
(g8
g9
NtRp2194
(dp2195
g12
g41
sg14
S'Garamond Premier Pro'
p2196
sg16
I400
sg17
g13
sg18
g13
sg19
S'/Library/Fonts/GaramondPremrPro-It.otf'
p2197
sg21
g22
sbag7
(g8
g9
NtRp2198
(dp2199
g12
g46
sg14
S'Latin Modern Roman Dunhill'
p2200
sg16
I500
sg17
g13
sg18
g13
sg19
S'/Library/Fonts/Latin Modern/lmromandunh10-oblique.otf'
p2201
sg21
g22
sbag7
(g8
g9
NtRp2202
(dp2203
g12
g13
sg14
S'Arno Pro'
p2204
sg16
I700
sg17
g13
sg18
g13
sg19
S'/Library/Fonts/ArnoPro-BoldSmText.otf'
p2205
sg21
g22
sbag7
(g8
g9
NtRp2206
(dp2207
g12
g41
sg14
S'Meiryo'
p2208
sg16
I700
sg17
g13
sg18
g13
sg19
S'/Library/Fonts/Microsoft/Meiryo Bold Italic.ttf'
p2209
sg21
g22
sbag7
(g8
g9
NtRp2210
(dp2211
g12
g13
sg14
S'Kozuka Gothic Pro'
p2212
sg16
I700
sg17
g13
sg18
g13
sg19
S'/Library/Fonts/KozGoPro-Bold.otf'
p2213
sg21
g22
sbag7
(g8
g9
NtRp2214
(dp2215
g12
g41
sg14
S'Candara'
p2216
sg16
I400
sg17
g13
sg18
g13
sg19
S'/Library/Fonts/Microsoft/Candara Italic.ttf'
p2217
sg21
g22
sbag7
(g8
g9
NtRp2218
(dp2219
g12
g13
sg14
S'Kozuka Gothic Pro'
p2220
sg16
I400
sg17
g13
sg18
g13
sg19
S'/Library/Fonts/KozGoPro-Medium.otf'
p2221
sg21
g22
sbag7
(g8
g9
NtRp2222
(dp2223
g12
g13
sg14
S'Apple SD Gothic Neo'
p2224
sg16
I200
sg17
g13
sg18
g13
sg19
S'/Library/Fonts/AppleSDGothicNeo-UltraLight.otf'
p2225
sg21
g22
sbag7
(g8
g9
NtRp2226
(dp2227
g12
g13
sg14
S'Courier New'
p2228
sg16
I700
sg17
g13
sg18
g13
sg19
S'/Users/andrea/Library/Fonts/courbd.ttf'
p2229
sg21
g22
sbag7
(g8
g9
NtRp2230
(dp2231
g12
g46
sg14
S'Latin Modern Sans Demi Cond'
p2232
sg16
I600
sg17
g172
sg18
g13
sg19
S'/Library/Fonts/Latin Modern/lmsansdemicond10-oblique.otf'
p2233
sg21
g22
sbag7
(g8
g9
NtRp2234
(dp2235
g12
g13
sg14
S'Arial Unicode MS'
p2236
sg16
I400
sg17
g13
sg18
g13
sg19
S'/Library/Fonts/Arial Unicode.ttf'
p2237
sg21
g22
sbag7
(g8
g9
NtRp2238
(dp2239
g12
g41
sg14
S'Delicious'
p2240
sg16
I700
sg17
g13
sg18
g13
sg19
S'/Users/andrea/Library/Fonts/Delicious-BoldItalic.otf'
p2241
sg21
g22
sbag7
(g8
g9
NtRp2242
(dp2243
g12
g13
sg14
S'Adobe Heiti Std'
p2244
sg16
I400
sg17
g13
sg18
g13
sg19
S'/Library/Fonts/AdobeHeitiStd-Regular.otf'
p2245
sg21
g22
sbag7
(g8
g9
NtRp2246
(dp2247
g12
g13
sg14
S'TradeGothic'
p2248
sg16
I400
sg17
g172
sg18
g13
sg19
S'/Users/andrea/Library/Fonts/TradeGotConEig.otf'
p2249
sg21
g22
sbag7
(g8
g9
NtRp2250
(dp2251
g12
g41
sg14
S'TeX Gyre Cursor'
p2252
sg16
I400
sg17
g13
sg18
g13
sg19
S'/Library/Fonts/TeX Gyre/texgyrecursor-italic.otf'
p2253
sg21
g22
sbag7
(g8
g9
NtRp2254
(dp2255
g12
g13
sg14
S'Palatino Linotype'
p2256
sg16
I400
sg17
g13
sg18
g13
sg19
S'/Users/andrea/Library/Fonts/pala.ttf'
p2257
sg21
g22
sbag7
(g8
g9
NtRp2258
(dp2259
g12
g13
sg14
S'Latin Modern Roman Slanted'
p2260
sg16
I700
sg17
g13
sg18
g13
sg19
S'/Library/Fonts/Latin Modern/lmromanslant10-bold.otf'
p2261
sg21
g22
sbag7
(g8
g9
NtRp2262
(dp2263
g12
g41
sg14
S'Adobe Devanagari'
p2264
sg16
I400
sg17
g13
sg18
g13
sg19
S'/Library/Fonts/AdobeDevanagari-Italic.otf'
p2265
sg21
g22
sbag7
(g8
g9
NtRp2266
(dp2267
g12
g13
sg14
S'Apple SD Gothic Neo'
p2268
sg16
I800
sg17
g13
sg18
g13
sg19
S'/Library/Fonts/AppleSDGothicNeo-Heavy.otf'
p2269
sg21
g22
sbag7
(g8
g9
NtRp2270
(dp2271
g12
g13
sg14
S'Anonymous Pro'
p2272
sg16
I400
sg17
g13
sg18
g13
sg19
S'/Users/andrea/Library/Fonts/Anonymous Pro.ttf'
p2273
sg21
g22
sbag7
(g8
g9
NtRp2274
(dp2275
g12
g13
sg14
S'Myriad Hebrew'
p2276
sg16
I400
sg17
g13
sg18
g13
sg19
S'/Library/Fonts/MyriadHebrew-Regular.otf'
p2277
sg21
g22
sbag7
(g8
g9
NtRp2278
(dp2279
g12
g13
sg14
S'Latin Modern Roman Demi'
p2280
sg16
I600
sg17
g13
sg18
g13
sg19
S'/Library/Fonts/Latin Modern/lmromandemi10-regular.otf'
p2281
sg21
g22
sbag7
(g8
g9
NtRp2282
(dp2283
g12
g13
sg14
S'Times New Roman'
p2284
sg16
I700
sg17
g13
sg18
g13
sg19
S'/Library/Fonts/Microsoft/Times New Roman Bold.ttf'
p2285
sg21
g22
sbag7
(g8
g9
NtRp2286
(dp2287
g12
g41
sg14
S'Calibri'
p2288
sg16
I400
sg17
g13
sg18
g13
sg19
S'/Library/Fonts/Microsoft/Calibri Italic.ttf'
p2289
sg21
g22
sbag7
(g8
g9
NtRp2290
(dp2291
g12
g13
sg14
S'Kozuka Mincho Pr6N'
p2292
sg16
I400
sg17
g13
sg18
g13
sg19
S'/Library/Fonts/KozMinPr6N-Regular.otf'
p2293
sg21
g22
sbag7
(g8
g9
NtRp2294
(dp2295
g12
g41
sg14
S'TeX Gyre Termes'
p2296
sg16
I700
sg17
g13
sg18
g13
sg19
S'/Library/Fonts/TeX Gyre/texgyretermes-bolditalic.otf'
p2297
sg21
g22
sbag7
(g8
g9
NtRp2298
(dp2299
g12
g13
sg14
S'TeX Gyre Adventor'
p2300
sg16
I700
sg17
g13
sg18
g13
sg19
S'/Library/Fonts/TeX Gyre/texgyreadventor-bold.otf'
p2301
sg21
g22
sbag7
(g8
g9
NtRp2302
(dp2303
g12
g41
sg14
S'Lekton'
p2304
sg16
I400
sg17
g13
sg18
g13
sg19
S'/Users/andrea/Library/Fonts/LektonItalic004.otf'
p2305
sg21
g22
sbag7
(g8
g9
NtRp2306
(dp2307
g12
g13
sg14
S'Fontin'
p2308
sg16
I400
sg17
g13
sg18
g13
sg19
S'/Users/andrea/Library/Fonts/Fontin-Regular.otf'
p2309
sg21
g22
sbag7
(g8
g9
NtRp2310
(dp2311
g12
g13
sg14
S'Diavlo'
p2312
sg16
I400
sg17
g13
sg18
g13
sg19
S'/Users/andrea/Library/Fonts/Diavlo_BOOK_II_37.otf'
p2313
sg21
g22
sbag7
(g8
g9
NtRp2314
(dp2315
g12
g13
sg14
S'Candara'
p2316
sg16
I400
sg17
g13
sg18
g13
sg19
S'/Library/Fonts/Microsoft/Candara.ttf'
p2317
sg21
g22
sbag7
(g8
g9
NtRp2318
(dp2319
g12
g41
sg14
S'Arno Pro'
p2320
sg16
I200
sg17
g13
sg18
g13
sg19
S'/Library/Fonts/ArnoPro-LightItalicDisplay.otf'
p2321
sg21
g22
sbag7
(g8
g9
NtRp2322
(dp2323
g12
g13
sg14
S'AW Conqueror Carved'
p2324
sg16
I400
sg17
g13
sg18
g13
sg19
S'/Users/andrea/Library/Fonts/AWConquerorCarved-One.otf'
p2325
sg21
g22
sbag7
(g8
g9
NtRp2326
(dp2327
g12
g13
sg14
S'Serto Jerusalem Outline'
p2328
sg16
I400
sg17
g13
sg18
g13
sg19
S'/usr/X11/lib/X11/fonts/OTF/SyrCOMJerusalemOutline.otf'
p2329
sg21
g22
sbag7
(g8
g9
NtRp2330
(dp2331
g12
g13
sg14
S'Thonburi'
p2332
sg16
I400
sg17
g13
sg18
g13
sg19
S'/System/Library/Fonts/Thonburi.ttf'
p2333
sg21
g22
sbag7
(g8
g9
NtRp2334
(dp2335
g12
g13
sg14
S'Arno Pro'
p2336
sg16
I700
sg17
g13
sg18
g13
sg19
S'/Library/Fonts/ArnoPro-BoldCaption.otf'
p2337
sg21
g22
sbag7
(g8
g9
NtRp2338
(dp2339
g12
g13
sg14
S'Duepuntozero'
p2340
sg16
I700
sg17
g13
sg18
g13
sg19
S'/Users/andrea/Library/Fonts/duepuntozero.ttf'
p2341
sg21
g22
sbag7
(g8
g9
NtRp2342
(dp2343
g12
g13
sg14
S'Chaparral Pro'
p2344
sg16
I700
sg17
g13
sg18
g13
sg19
S'/Library/Fonts/ChaparralPro-Bold.otf'
p2345
sg21
g22
sbag7
(g8
g9
NtRp2346
(dp2347
g12
g13
sg14
S'Eras Demi ITC'
p2348
sg16
I600
sg17
g13
sg18
g13
sg19
S'/Users/andrea/Library/Fonts/ERASDEMI.TTF'
p2349
sg21
g22
sbag7
(g8
g9
NtRp2350
(dp2351
g12
g41
sg14
S'TeX Gyre Heros'
p2352
sg16
I400
sg17
g13
sg18
g13
sg19
S'/Library/Fonts/TeX Gyre/texgyreheros-italic.otf'
p2353
sg21
g22
sbag7
(g8
g9
NtRp2354
(dp2355
g12
g13
sg14
S'MonaKo'
p2356
sg16
I400
sg17
g13
sg18
g13
sg19
S'/Users/andrea/Library/Fonts/MonaKo.ttf'
p2357
sg21
g22
sbag7
(g8
g9
NtRp2358
(dp2359
g12
g13
sg14
S'Latin Modern Roman Slanted'
p2360
sg16
I400
sg17
g13
sg18
g13
sg19
S'/Library/Fonts/Latin Modern/lmromanslant17-regular.otf'
p2361
sg21
g22
sbag7
(g8
g9
NtRp2362
(dp2363
g12
g13
sg14
S'Courier New'
p2364
sg16
I400
sg17
g13
sg18
g13
sg19
S'/Library/Fonts/Courier New.ttf'
p2365
sg21
g22
sbag7
(g8
g9
NtRp2366
(dp2367
g12
g41
sg14
S'Arial Narrow'
p2368
sg16
I700
sg17
g172
sg18
g13
sg19
S'/Library/Fonts/Arial Narrow Bold Italic.ttf'
p2369
sg21
g22
sbag7
(g8
g9
NtRp2370
(dp2371
g12
g13
sg14
S'Zapfino'
p2372
sg16
I400
sg17
g13
sg18
g13
sg19
S'/Library/Fonts/Zapfino.ttf'
p2373
sg21
g22
sbag7
(g8
g9
NtRp2374
(dp2375
g12
g13
sg14
S'Krungthep'
p2376
sg16
I400
sg17
g13
sg18
g13
sg19
S'/Library/Fonts/Krungthep.ttf'
p2377
sg21
g22
sbag7
(g8
g9
NtRp2378
(dp2379
g12
g13
sg14
S'Apple SD Gothic Neo'
p2380
sg16
I700
sg17
g13
sg18
g13
sg19
S'/Library/Fonts/AppleSDGothicNeo-ExtraBold.otf'
p2381
sg21
g22
sbag7
(g8
g9
NtRp2382
(dp2383
g12
g41
sg14
S'Garamond Premier Pro'
p2384
sg16
I700
sg17
g13
sg18
g13
sg19
S'/Library/Fonts/GaramondPremrPro-SmbdIt.otf'
p2385
sg21
g22
sbag7
(g8
g9
NtRp2386
(dp2387
g12
g13
sg14
S'Myriad Hebrew'
p2388
sg16
I700
sg17
g13
sg18
g13
sg19
S'/Library/Fonts/MyriadHebrew-Bold.otf'
p2389
sg21
g22
sbag7
(g8
g9
NtRp2390
(dp2391
g12
g13
sg14
S'AW Conqueror Didot'
p2392
sg16
I200
sg17
g13
sg18
g13
sg19
S'/Users/andrea/Library/Fonts/AWConquerorDidot-Light.otf'
p2393
sg21
g22
sbag7
(g8
g9
NtRp2394
(dp2395
g12
g41
sg14
S'Cooper Std'
p2396
sg16
I900
sg17
g13
sg18
g13
sg19
S'/Library/Fonts/CooperBlackStd-Italic.otf'
p2397
sg21
g22
sbag7
(g8
g9
NtRp2398
(dp2399
g12
g13
sg14
S'KlingonTNG'
p2400
sg16
I400
sg17
g13
sg18
g13
sg19
S'/Users/andrea/Library/Fonts/KLTNG___.TTF'
p2401
sg21
g22
sbag7
(g8
g9
NtRp2402
(dp2403
g12
g13
sg14
S'Estrangelo Nisibin Outline'
p2404
sg16
I400
sg17
g13
sg18
g13
sg19
S'/usr/X11/lib/X11/fonts/OTF/SyrCOMNisibinOutline.otf'
p2405
sg21
g22
sbag7
(g8
g9
NtRp2406
(dp2407
g12
g13
sg14
S'TG Pagella Math'
p2408
sg16
I400
sg17
g13
sg18
g13
sg19
S'/Library/Fonts/TeX Gyre/texgyrepagella-math.otf'
p2409
sg21
g22
sbag7
(g8
g9
NtRp2410
(dp2411
g12
g13
sg14
S'Minion Pro'
p2412
sg16
I700
sg17
g172
sg18
g13
sg19
S'/Library/Fonts/MinionPro-BoldCn.otf'
p2413
sg21
g22
sbag7
(g8
g9
NtRp2414
(dp2415
g12
g13
sg14
S'Europe Underground'
p2416
sg16
I400
sg17
g13
sg18
g13
sg19
S'/Users/andrea/Library/Fonts/EuropeUnderground_black.ttf'
p2417
sg21
g22
sbag7
(g8
g9
NtRp2418
(dp2419
g12
g13
sg14
S'Hiragino Kaku Gothic ProN'
p2420
sg16
I400
sg17
g13
sg18
g13
sg19
S'/System/Library/Fonts/\xe3\x83\x92\xe3\x83\xa9\xe3\x82\xad\xe3\x82\x99\xe3\x83\x8e\xe8\xa7\x92\xe3\x82\xb3\xe3\x82\x99 ProN W3.otf'
p2421
sg21
g22
sbag7
(g8
g9
NtRp2422
(dp2423
g12
g13
sg14
S'STHeiti'
p2424
sg16
I400
sg17
g13
sg18
g13
sg19
S'/Library/Fonts/\xe5\x8d\x8e\xe6\x96\x87\xe9\xbb\x91\xe4\xbd\x93.ttf'
p2425
sg21
g22
sbag7
(g8
g9
NtRp2426
(dp2427
g12
g13
sg14
S'Apple Braille'
p2428
sg16
I400
sg17
g13
sg18
g13
sg19
S'/System/Library/Fonts/Apple Braille Outline 8 Dot.ttf'
p2429
sg21
g22
sbag7
(g8
g9
NtRp2430
(dp2431
g12
g13
sg14
S'Kozuka Mincho Pro'
p2432
sg16
I400
sg17
g13
sg18
g13
sg19
S'/Library/Fonts/KozMinPro-Light.otf'
p2433
sg21
g22
sbag7
(g8
g9
NtRp2434
(dp2435
g12
g13
sg14
S'Estrangelo Quenneshrin'
p2436
sg16
I400
sg17
g13
sg18
g13
sg19
S'/usr/X11/lib/X11/fonts/OTF/SyrCOMQenNeshrin.otf'
p2437
sg21
g22
sbag7
(g8
g9
NtRp2438
(dp2439
g12
g13
sg14
S'Bickham Script Pro'
p2440
sg16
I700
sg17
g13
sg18
g13
sg19
S'/Library/Fonts/BickhamScriptPro-Semibold.otf'
p2441
sg21
g22
sbag7
(g8
g9
NtRp2442
(dp2443
g12
g13
sg14
S'Latin Modern Roman'
p2444
sg16
I700
sg17
g13
sg18
g13
sg19
S'/Library/Fonts/Latin Modern/lmroman12-bold.otf'
p2445
sg21
g22
sbag7
(g8
g9
NtRp2446
(dp2447
g12
g13
sg14
S'TeX Gyre Cursor'
p2448
sg16
I400
sg17
g13
sg18
g13
sg19
S'/Library/Fonts/TeX Gyre/texgyrecursor-regular.otf'
p2449
sg21
g22
sbag7
(g8
g9
NtRp2450
(dp2451
g12
g13
sg14
S'TradeGothic'
p2452
sg16
I200
sg17
g13
sg18
g13
sg19
S'/Users/andrea/Library/Fonts/TradeGotLig.otf'
p2453
sg21
g22
sbag7
(g8
g9
NtRp2454
(dp2455
g12
g13
sg14
S'Menlo for Powerline'
p2456
sg16
I400
sg17
g13
sg18
g13
sg19
S'/Users/andrea/Library/Fonts/Menlo-Powerline-2.otf'
p2457
sg21
g22
sbag7
(g8
g9
NtRp2458
(dp2459
g12
g41
sg14
S'Corbel'
p2460
sg16
I400
sg17
g13
sg18
g13
sg19
S'/Library/Fonts/Microsoft/Corbel Italic.ttf'
p2461
sg21
g22
sbag7
(g8
g9
NtRp2462
(dp2463
g12
g13
sg14
S'TeX Gyre Termes'
p2464
sg16
I400
sg17
g13
sg18
g13
sg19
S'/Library/Fonts/TeX Gyre/texgyretermes-regular.otf'
p2465
sg21
g22
sbag7
(g8
g9
NtRp2466
(dp2467
g12
g13
sg14
S'Palatino Linotype'
p2468
sg16
I700
sg17
g13
sg18
g13
sg19
S'/Library/Fonts/Microsoft/Palatino Linotype Bold.ttf'
p2469
sg21
g22
sbag7
(g8
g9
NtRp2470
(dp2471
g12
g41
sg14
S'Adobe Garamond Pro'
p2472
sg16
I400
sg17
g13
sg18
g13
sg19
S'/Library/Fonts/AGaramondPro-Italic.otf'
p2473
sg21
g22
sbag7
(g8
g9
NtRp2474
(dp2475
g12
g13
sg14
S'STIXVariants'
p2476
sg16
I700
sg17
g13
sg18
g13
sg19
S'/Library/Fonts/STIXVarBol.otf'
p2477
sg21
g22
sbag7
(g8
g9
NtRp2478
(dp2479
g12
g13
sg14
S'Hiragino Kaku Gothic StdN'
p2480
sg16
I700
sg17
g13
sg18
g13
sg19
S'/Library/Fonts/\xe3\x83\x92\xe3\x83\xa9\xe3\x82\xad\xe3\x82\x99\xe3\x83\x8e\xe8\xa7\x92\xe3\x82\xb3\xe3\x82\x99 StdN W8.otf'
p2481
sg21
g22
sbag7
(g8
g9
NtRp2482
(dp2483
g12
g13
sg14
S'MS Gothic'
p2484
sg16
I400
sg17
g13
sg18
g13
sg19
S'/Library/Fonts/Microsoft/MS Gothic.ttf'
p2485
sg21
g22
sbag7
(g8
g9
NtRp2486
(dp2487
g12
g13
sg14
S'MS PMincho'
p2488
sg16
I400
sg17
g13
sg18
g13
sg19
S'/Library/Fonts/Microsoft/MS PMincho.ttf'
p2489
sg21
g22
sbag7
(g8
g9
NtRp2490
(dp2491
g12
g13
sg14
S'MS Reference Sans Serif'
p2492
sg16
I400
sg17
g13
sg18
g13
sg19
S'/Library/Fonts/Microsoft/MS Reference Sans Serif.ttf'
p2493
sg21
g22
sbag7
(g8
g9
NtRp2494
(dp2495
g12
g13
sg14
S'STIXSizeTwoSym'
p2496
sg16
I700
sg17
g13
sg18
g13
sg19
S'/Library/Fonts/STIXSizTwoSymBol.otf'
p2497
sg21
g22
sbag7
(g8
g9
NtRp2498
(dp2499
g12
g13
sg14
S'Hiragino Mincho Pro'
p2500
sg16
I400
sg17
g13
sg18
g13
sg19
S'/Library/Fonts/\xe3\x83\x92\xe3\x83\xa9\xe3\x82\xad\xe3\x82\x99\xe3\x83\x8e\xe6\x98\x8e\xe6\x9c\x9d Pro W3.otf'
p2501
sg21
g22
sbag7
(g8
g9
NtRp2502
(dp2503
g12
g13
sg14
S'Corbel'
p2504
sg16
I400
sg17
g13
sg18
g13
sg19
S'/Library/Fonts/Microsoft/Corbel.ttf'
p2505
sg21
g22
sbag7
(g8
g9
NtRp2506
(dp2507
g12
g13
sg14
S'TradeGothic'
p2508
sg16
I700
sg17
g13
sg18
g13
sg19
S'/Users/andrea/Library/Fonts/TradeGotBolTwo.otf'
p2509
sg21
g22
sbag7
(g8
g9
NtRp2510
(dp2511
g12
g13
sg14
S'Adobe Caslon Pro'
p2512
sg16
I700
sg17
g13
sg18
g13
sg19
S'/Library/Fonts/ACaslonPro-Semibold.otf'
p2513
sg21
g22
sbag7
(g8
g9
NtRp2514
(dp2515
g12
g13
sg14
S'Eccentric Std'
p2516
sg16
I400
sg17
g13
sg18
g13
sg19
S'/Library/Fonts/EccentricStd.otf'
p2517
sg21
g22
sbag7
(g8
g9
NtRp2518
(dp2519
g12
g13
sg14
S'TeX Gyre Cursor'
p2520
sg16
I700
sg17
g13
sg18
g13
sg19
S'/Library/Fonts/TeX Gyre/texgyrecursor-bold.otf'
p2521
sg21
g22
sbag7
(g8
g9
NtRp2522
(dp2523
g12
g13
sg14
S'Latin Modern Roman'
p2524
sg16
I400
sg17
g13
sg18
g13
sg19
S'/Library/Fonts/Latin Modern/lmroman9-regular.otf'
p2525
sg21
g22
sbag7
(g8
g9
NtRp2526
(dp2527
g12
g13
sg14
S'Latin Modern Roman'
p2528
sg16
I400
sg17
g13
sg18
g13
sg19
S'/Library/Fonts/Latin Modern/lmroman8-regular.otf'
p2529
sg21
g22
sbag7
(g8
g9
NtRp2530
(dp2531
g12
g13
sg14
S'Berlin Sans FB'
p2532
sg16
I400
sg17
g13
sg18
g13
sg19
S'/Users/andrea/Library/Fonts/BRLNSR.TTF'
p2533
sg21
g22
sbag7
(g8
g9
NtRp2534
(dp2535
g12
g13
sg14
S'SimSun'
p2536
sg16
I400
sg17
g13
sg18
g13
sg19
S'/Library/Fonts/Microsoft/SimSun.ttf'
p2537
sg21
g22
sbag7
(g8
g9
NtRp2538
(dp2539
g12
g13
sg14
S'VAGRounded Lt'
p2540
sg16
I400
sg17
g13
sg18
g13
sg19
S'/Users/andrea/Library/Fonts/Vagroln.ttf'
p2541
sg21
g22
sbag7
(g8
g9
NtRp2542
(dp2543
g12
g13
sg14
S'Apple Braille'
p2544
sg16
I400
sg17
g13
sg18
g13
sg19
S'/System/Library/Fonts/Apple Braille Pinpoint 8 Dot.ttf'
p2545
sg21
g22
sbag7
(g8
g9
NtRp2546
(dp2547
g12
g13
sg14
S'Minion Pro'
p2548
sg16
I500
sg17
g13
sg18
g13
sg19
S'/Library/Fonts/MinionPro-Medium.otf'
p2549
sg21
g22
sbag7
(g8
g9
NtRp2550
(dp2551
g12
g13
sg14
S'Apple Braille'
p2552
sg16
I400
sg17
g13
sg18
g13
sg19
S'/System/Library/Fonts/Apple Braille Outline 6 Dot.ttf'
p2553
sg21
g22
sbag7
(g8
g9
NtRp2554
(dp2555
g12
g13
sg14
S'Adobe Hebrew'
p2556
sg16
I700
sg17
g13
sg18
g13
sg19
S'/Library/Fonts/AdobeHebrew-Bold.otf'
p2557
sg21
g22
sbag7
(g8
g9
NtRp2558
(dp2559
g12
g41
sg14
S'Gill Sans MT'
p2560
sg16
I700
sg17
g13
sg18
g13
sg19
S'/Library/Fonts/Microsoft/Gill Sans MT Bold Italic.ttf'
p2561
sg21
g22
sbag7
(g8
g9
NtRp2562
(dp2563
g12
g13
sg14
S'Raanana'
p2564
sg16
I700
sg17
g13
sg18
g13
sg19
S'/Library/Fonts/RaananaBold.ttf'
p2565
sg21
g22
sbag7
(g8
g9
NtRp2566
(dp2567
g12
g13
sg14
S'Ned'
p2568
sg16
I400
sg17
g13
sg18
g13
sg19
S'/Users/andrea/Library/Fonts/Ned.ttf'
p2569
sg21
g22
sbag7
(g8
g9
NtRp2570
(dp2571
g12
g13
sg14
S'Adobe Garamond Pro'
p2572
sg16
I400
sg17
g13
sg18
g13
sg19
S'/Library/Fonts/AGaramondPro-Regular.otf'
p2573
sg21
g22
sbag7
(g8
g9
NtRp2574
(dp2575
g12
g41
sg14
S'Arno Pro'
p2576
sg16
I700
sg17
g13
sg18
g13
sg19
S'/Library/Fonts/ArnoPro-BoldItalicSubhead.otf'
p2577
sg21
g22
sbag7
(g8
g9
NtRp2578
(dp2579
g12
g13
sg14
S'Myriad Arabic'
p2580
sg16
I700
sg17
g13
sg18
g13
sg19
S'/Library/Fonts/MyriadArabic-Bold.otf'
p2581
sg21
g22
sbag7
(g8
g9
NtRp2582
(dp2583
g12
g13
sg14
S'Chaparral Pro'
p2584
sg16
I400
sg17
g13
sg18
g13
sg19
S'/Library/Fonts/ChaparralPro-Regular.otf'
p2585
sg21
g22
sbag7
(g8
g9
NtRp2586
(dp2587
g12
g13
sg14
S'LastResort'
p2588
sg16
I400
sg17
g13
sg18
g13
sg19
S'/System/Library/Fonts/LastResort.ttf'
p2589
sg21
g22
sbag7
(g8
g9
NtRp2590
(dp2591
g12
g13
sg14
S'Latin Modern Roman'
p2592
sg16
I400
sg17
g13
sg18
g13
sg19
S'/Library/Fonts/Latin Modern/lmroman12-regular.otf'
p2593
sg21
g22
sbag7
(g8
g9
NtRp2594
(dp2595
g12
g13
sg14
S'Yuppy TC'
p2596
sg16
I400
sg17
g13
sg18
g13
sg19
S'/Library/Fonts/\xe9\x9b\x85\xe7\x97\x9e-\xe7\xb9\x81.otf'
p2597
sg21
g22
sbag7
(g8
g9
NtRp2598
(dp2599
g12
g41
sg14
S'Fontin'
p2600
sg16
I400
sg17
g13
sg18
g13
sg19
S'/Users/andrea/Library/Fonts/Fontin-Italic.otf'
p2601
sg21
g22
sbag7
(g8
g9
NtRp2602
(dp2603
g12
g13
sg14
S'Apple SD Gothic Neo'
p2604
sg16
I400
sg17
g13
sg18
g13
sg19
S'/Library/Fonts/AppleSDGothicNeo-Thin.otf'
p2605
sg21
g22
sbag7
(g8
g9
NtRp2606
(dp2607
g12
g13
sg14
S'Arno Pro'
p2608
sg16
I700
sg17
g13
sg18
g13
sg19
S'/Library/Fonts/ArnoPro-SmbdCaption.otf'
p2609
sg21
g22
sbag7
(g8
g9
NtRp2610
(dp2611
g12
g13
sg14
S'Geeza Pro'
p2612
sg16
I700
sg17
g13
sg18
g13
sg19
S'/System/Library/Fonts/Geeza Pro Bold.ttf'
p2613
sg21
g22
sbag7
(g8
g9
NtRp2614
(dp2615
g12
g41
sg14
S'GentiumAlt'
p2616
sg16
I400
sg17
g13
sg18
g13
sg19
S'/Users/andrea/Library/Fonts/GenAI102.TTF'
p2617
sg21
g22
sbag7
(g8
g9
NtRp2618
(dp2619
g12
g13
sg14
S'Adobe Caslon Pro'
p2620
sg16
I700
sg17
g13
sg18
g13
sg19
S'/Library/Fonts/ACaslonPro-Bold.otf'
p2621
sg21
g22
sbag7
(g8
g9
NtRp2622
(dp2623
g12
g13
sg14
S'Punched Out'
p2624
sg16
I400
sg17
g13
sg18
g13
sg19
S'/Users/andrea/Library/Fonts/punched_out.ttf'
p2625
sg21
g22
sbag7
(g8
g9
NtRp2626
(dp2627
g12
g13
sg14
S'Dekar Light'
p2628
sg16
I200
sg17
g13
sg18
g13
sg19
S'/Users/andrea/Library/Fonts/Dekar Light.otf'
p2629
sg21
g22
sbag7
(g8
g9
NtRp2630
(dp2631
g12
g13
sg14
S'Franklin Gothic Book'
p2632
sg16
I400
sg17
g13
sg18
g13
sg19
S'/Library/Fonts/Microsoft/Franklin Gothic Book.ttf'
p2633
sg21
g22
sbag7
(g8
g9
NtRp2634
(dp2635
g12
g13
sg14
S'Osaka'
p2636
sg16
I400
sg17
g13
sg18
g13
sg19
S'/Library/Fonts/OsakaMono.ttf'
p2637
sg21
g22
sbag7
(g8
g9
NtRp2638
(dp2639
g12
g13
sg14
S'Kozuka Mincho Pr6N'
p2640
sg16
I400
sg17
g13
sg18
g13
sg19
S'/Library/Fonts/KozMinPr6N-ExtraLight.otf'
p2641
sg21
g22
sbag7
(g8
g9
NtRp2642
(dp2643
g12
g13
sg14
S'Trebuchet MS'
p2644
sg16
I400
sg17
g13
sg18
g13
sg19
S'/Library/Fonts/Trebuchet MS.ttf'
p2645
sg21
g22
sbag7
(g8
g9
NtRp2646
(dp2647
g12
g13
sg14
S'Latin Modern Roman Slanted'
p2648
sg16
I400
sg17
g13
sg18
g13
sg19
S'/Library/Fonts/Latin Modern/lmromanslant9-regular.otf'
p2649
sg21
g22
sbag7
(g8
g9
NtRp2650
(dp2651
g12
g13
sg14
S'Lekton'
p2652
sg16
I400
sg17
g13
sg18
g13
sg19
S'/Users/andrea/Library/Fonts/Lekton034.otf'
p2653
sg21
g22
sbag7
(g8
g9
NtRp2654
(dp2655
g12
g13
sg14
S'Courier New'
p2656
sg16
I700
sg17
g13
sg18
g13
sg19
S'/Library/Fonts/Courier New Bold.ttf'
p2657
sg21
g22
sbag7
(g8
g9
NtRp2658
(dp2659
g12
g13
sg14
S'Menlo for Powerline'
p2660
sg16
I400
sg17
g13
sg18
g13
sg19
S'/Users/andrea/Library/Fonts/Menlo-Powerline.otf'
p2661
sg21
g22
sbag7
(g8
g9
NtRp2662
(dp2663
g12
g41
sg14
S'Latin Modern Mono'
p2664
sg16
I400
sg17
g13
sg18
g13
sg19
S'/Library/Fonts/Latin Modern/lmmono10-italic.otf'
p2665
sg21
g22
sbag7
(g8
g9
NtRp2666
(dp2667
g12
g13
sg14
S'Perpetua'
p2668
sg16
I700
sg17
g13
sg18
g13
sg19
S'/Library/Fonts/Microsoft/Perpetua Bold.ttf'
p2669
sg21
g22
sbag7
(g8
g9
NtRp2670
(dp2671
g12
g13
sg14
S'Adobe Fangsong Std'
p2672
sg16
I400
sg17
g13
sg18
g13
sg19
S'/Library/Fonts/AdobeFangsongStd-Regular.otf'
p2673
sg21
g22
sbag7
(g8
g9
NtRp2674
(dp2675
g12
g13
sg14
S'Herculanum'
p2676
sg16
I400
sg17
g13
sg18
g13
sg19
S'/Library/Fonts/Herculanum.ttf'
p2677
sg21
g22
sbag7
(g8
g9
NtRp2678
(dp2679
g12
g41
sg14
S'TeX Gyre Adventor'
p2680
sg16
I700
sg17
g13
sg18
g13
sg19
S'/Library/Fonts/TeX Gyre/texgyreadventor-bolditalic.otf'
p2681
sg21
g22
sbag7
(g8
g9
NtRp2682
(dp2683
g12
g13
sg14
S'Latin Modern Sans Quotation'
p2684
sg16
I400
sg17
g13
sg18
g13
sg19
S'/Library/Fonts/Latin Modern/lmsansquot8-regular.otf'
p2685
sg21
g22
sbag7
(g8
g9
NtRp2686
(dp2687
g12
g41
sg14
S'Minion Pro'
p2688
sg16
I700
sg17
g13
sg18
g13
sg19
S'/Library/Fonts/MinionPro-SemiboldIt.otf'
p2689
sg21
g22
sbag7
(g8
g9
NtRp2690
(dp2691
g12
g13
sg14
S'Adobe Devanagari'
p2692
sg16
I400
sg17
g13
sg18
g13
sg19
S'/Library/Fonts/AdobeDevanagari-Regular.otf'
p2693
sg21
g22
sbag7
(g8
g9
NtRp2694
(dp2695
g12
g13
sg14
S'Wingdings 2'
p2696
sg16
I400
sg17
g13
sg18
g13
sg19
S'/Library/Fonts/Wingdings 2.ttf'
p2697
sg21
g22
sbag7
(g8
g9
NtRp2698
(dp2699
g12
g13
sg14
S'Lithos Pro'
p2700
sg16
I900
sg17
g13
sg18
g13
sg19
S'/Library/Fonts/LithosPro-Black.otf'
p2701
sg21
g22
sbag7
(g8
g9
NtRp2702
(dp2703
g12
g13
sg14
S'Tahoma'
p2704
sg16
I400
sg17
g13
sg18
g13
sg19
S'/Library/Fonts/Tahoma.ttf'
p2705
sg21
g22
sbag7
(g8
g9
NtRp2706
(dp2707
g12
g13
sg14
S'Gill Sans MT'
p2708
sg16
I700
sg17
g13
sg18
g13
sg19
S'/Library/Fonts/Microsoft/Gill Sans MT Bold.ttf'
p2709
sg21
g22
sbag7
(g8
g9
NtRp2710
(dp2711
g12
g13
sg14
S'Hiragino Maru Gothic ProN'
p2712
sg16
I400
sg17
g13
sg18
g13
sg19
S'/Library/Fonts/\xe3\x83\x92\xe3\x83\xa9\xe3\x82\xad\xe3\x82\x99\xe3\x83\x8e\xe4\xb8\xb8\xe3\x82\xb3\xe3\x82\x99 ProN W4.otf'
p2713
sg21
g22
sbag7
(g8
g9
NtRp2714
(dp2715
g12
g41
sg14
S'TeX Gyre Cursor'
p2716
sg16
I700
sg17
g13
sg18
g13
sg19
S'/Library/Fonts/TeX Gyre/texgyrecursor-bolditalic.otf'
p2717
sg21
g22
sbag7
(g8
g9
NtRp2718
(dp2719
g12
g41
sg14
S'Palatino Linotype'
p2720
sg16
I400
sg17
g13
sg18
g13
sg19
S'/Library/Fonts/Microsoft/Palatino Linotype Italic.ttf'
p2721
sg21
g22
sbag7
(g8
g9
NtRp2722
(dp2723
g12
g13
sg14
S'STIXSizeOneSym'
p2724
sg16
I400
sg17
g13
sg18
g13
sg19
S'/Library/Fonts/STIXSizOneSymReg.otf'
p2725
sg21
g22
sbag7
(g8
g9
NtRp2726
(dp2727
g12
g41
sg14
S'Orator Std'
p2728
sg16
I400
sg17
g13
sg18
g13
sg19
S'/Library/Fonts/OratorStd-Slanted.otf'
p2729
sg21
g22
sbag7
(g8
g9
NtRp2730
(dp2731
g12
g41
sg14
S'Myriad Hebrew'
p2732
sg16
I400
sg17
g13
sg18
g13
sg19
S'/Library/Fonts/MyriadHebrew-It.otf'
p2733
sg21
g22
sbag7
(g8
g9
NtRp2734
(dp2735
g12
g13
sg14
S'MS Mincho'
p2736
sg16
I400
sg17
g13
sg18
g13
sg19
S'/Library/Fonts/Microsoft/MS Mincho.ttf'
p2737
sg21
g22
sbag7
(g8
g9
NtRp2738
(dp2739
g12
g13
sg14
S'Latin Modern Sans'
p2740
sg16
I400
sg17
g13
sg18
g13
sg19
S'/Library/Fonts/Latin Modern/lmsans9-regular.otf'
p2741
sg21
g22
sbag7
(g8
g9
NtRp2742
(dp2743
g12
g13
sg14
S'TeX Gyre Heros Cn'
p2744
sg16
I400
sg17
g13
sg18
g13
sg19
S'/Library/Fonts/TeX Gyre/texgyreheroscn-regular.otf'
p2745
sg21
g22
sbag7
(g8
g9
NtRp2746
(dp2747
g12
g13
sg14
S'Diavlo'
p2748
sg16
I400
sg17
g13
sg18
g13
sg19
S'/Users/andrea/Library/Fonts/Diavlo_LIGHT_II_37.otf'
p2749
sg21
g22
sbag7
(g8
g9
NtRp2750
(dp2751
g12
g13
sg14
S'STHeiti'
p2752
sg16
I400
sg17
g13
sg18
g13
sg19
S'/Library/Fonts/\xe5\x8d\x8e\xe6\x96\x87\xe7\xbb\x86\xe9\xbb\x91.ttf'
p2753
sg21
g22
sbag7
(g8
g9
NtRp2754
(dp2755
g12
g13
sg14
S'Trade Gothic LH'
p2756
sg16
I400
sg17
g13
sg18
g13
sg19
S'/Users/andrea/Library/Fonts/TradeGotLHExt.otf'
p2757
sg21
g22
sbag7
(g8
g9
NtRp2758
(dp2759
g12
g13
sg14
S'Latin Modern Roman'
p2760
sg16
I700
sg17
g13
sg18
g13
sg19
S'/Library/Fonts/Latin Modern/lmroman7-bold.otf'
p2761
sg21
g22
sbag7
(g8
g9
NtRp2762
(dp2763
g12
g41
sg14
S'Meiryo'
p2764
sg16
I400
sg17
g13
sg18
g13
sg19
S'/Library/Fonts/Microsoft/Meiryo Italic.ttf'
p2765
sg21
g22
sbag7
(g8
g9
NtRp2766
(dp2767
g12
g13
sg14
S'Delicious SmallCaps'
p2768
sg16
I400
sg17
g13
sg18
g13
sg19
S'/Users/andrea/Library/Fonts/Delicious-SmallCaps.otf'
p2769
sg21
g22
sbag7
(g8
g9
NtRp2770
(dp2771
g12
g13
sg14
S'Kozuka Mincho Pro'
p2772
sg16
I400
sg17
g13
sg18
g13
sg19
S'/Library/Fonts/KozMinPro-ExtraLight.otf'
p2773
sg21
g22
sbag7
(g8
g9
NtRp2774
(dp2775
g12
g46
sg14
S'Latin Modern Roman Caps'
p2776
sg16
I500
sg17
g13
sg18
g13
sg19
S'/Library/Fonts/Latin Modern/lmromancaps10-oblique.otf'
p2777
sg21
g22
sbag7
(g8
g9
NtRp2778
(dp2779
g12
g13
sg14
S'Latin Modern Sans'
p2780
sg16
I400
sg17
g13
sg18
g13
sg19
S'/Library/Fonts/Latin Modern/lmsans8-regular.otf'
p2781
sg21
g22
sbag7
(g8
g9
NtRp2782
(dp2783
g12
g13
sg14
S'Apple Symbols'
p2784
sg16
I400
sg17
g13
sg18
g13
sg19
S'/System/Library/Fonts/Apple Symbols.ttf'
p2785
sg21
g22
sbag7
(g8
g9
NtRp2786
(dp2787
g12
g13
sg14
S'Hobo Std'
p2788
sg16
I500
sg17
g13
sg18
g13
sg19
S'/Library/Fonts/HoboStd.otf'
p2789
sg21
g22
sbag7
(g8
g9
NtRp2790
(dp2791
g12
g13
sg14
S'Kozuka Mincho Pr6N'
p2792
sg16
I400
sg17
g13
sg18
g13
sg19
S'/Library/Fonts/KozMinPr6N-Medium.otf'
p2793
sg21
g22
sbag7
(g8
g9
NtRp2794
(dp2795
g12
g13
sg14
S'Apple LiGothic'
p2796
sg16
I500
sg17
g13
sg18
g13
sg19
S'/Library/Fonts/Apple LiGothic Medium.ttf'
p2797
sg21
g22
sbag7
(g8
g9
NtRp2798
(dp2799
g12
g41
sg14
S'Liberation Serif'
p2800
sg16
I400
sg17
g13
sg18
g13
sg19
S'/Users/andrea/.fonts/LiberationSerif_Italic.ttf'
p2801
sg21
g22
sbag7
(g8
g9
NtRp2802
(dp2803
g12
g13
sg14
S'Calibri'
p2804
sg16
I400
sg17
g13
sg18
g13
sg19
S'/Library/Fonts/Microsoft/Calibri.ttf'
p2805
sg21
g22
sbag7
(g8
g9
NtRp2806
(dp2807
g12
g13
sg14
S'Diavlo'
p2808
sg16
I500
sg17
g13
sg18
g13
sg19
S'/Users/andrea/Library/Fonts/Diavlo_MEDIUM_II_37.otf'
p2809
sg21
g22
sbag7
(g8
g9
NtRp2810
(dp2811
g12
g13
sg14
S'Nueva Std'
p2812
sg16
I700
sg17
g13
sg18
g13
sg19
S'/Library/Fonts/NuevaStd-Bold.otf'
p2813
sg21
g22
sbag7
(g8
g9
NtRp2814
(dp2815
g12
g13
sg14
S'Devanagari MT'
p2816
sg16
I400
sg17
g13
sg18
g13
sg19
S'/Library/Fonts/DevanagariMT.ttf'
p2817
sg21
g22
sbag7
(g8
g9
NtRp2818
(dp2819
g12
g13
sg14
S'Latin Modern Mono'
p2820
sg16
I400
sg17
g13
sg18
g13
sg19
S'/Library/Fonts/Latin Modern/lmmono9-regular.otf'
p2821
sg21
g22
sbag7
(g8
g9
NtRp2822
(dp2823
g12
g13
sg14
S'Diavlo'
p2824
sg16
I400
sg17
g13
sg18
g13
sg19
S'/Users/andrea/Library/Fonts/Diavlo_BLACK_II_37.otf'
p2825
sg21
g22
sbag7
(g8
g9
NtRp2826
(dp2827
g12
g13
sg14
S'Latin Modern Mono Light Cond'
p2828
sg16
I400
sg17
g172
sg18
g13
sg19
S'/Library/Fonts/Latin Modern/lmmonoltcond10-regular.otf'
p2829
sg21
g22
sbag7
(g8
g9
NtRp2830
(dp2831
g12
g13
sg14
S'TeX Gyre Heros'
p2832
sg16
I700
sg17
g13
sg18
g13
sg19
S'/Library/Fonts/TeX Gyre/texgyreheros-bold.otf'
p2833
sg21
g22
sbag7
(g8
g9
NtRp2834
(dp2835
g12
g13
sg14
S'Kozuka Gothic Pro'
p2836
sg16
I400
sg17
g13
sg18
g13
sg19
S'/Library/Fonts/KozGoPro-Regular.otf'
p2837
sg21
g22
sbag7
(g8
g9
NtRp2838
(dp2839
g12
g13
sg14
S'Sathu'
p2840
sg16
I400
sg17
g13
sg18
g13
sg19
S'/Library/Fonts/Sathu.ttf'
p2841
sg21
g22
sbag7
(g8
g9
NtRp2842
(dp2843
g12
g13
sg14
S'Comic Sans MS'
p2844
sg16
I400
sg17
g13
sg18
g13
sg19
S'/Library/Fonts/Comic Sans MS.ttf'
p2845
sg21
g22
sbag7
(g8
g9
NtRp2846
(dp2847
g12
g13
sg14
S'Gujarati MT'
p2848
sg16
I400
sg17
g13
sg18
g13
sg19
S'/Library/Fonts/GujaratiMT.ttf'
p2849
sg21
g22
sbag7
(g8
g9
NtRp2850
(dp2851
g12
g13
sg14
S'Apple SD Gothic Neo'
p2852
sg16
I500
sg17
g13
sg18
g13
sg19
S'/Library/Fonts/AppleSDGothicNeo-Medium.otf'
p2853
sg21
g22
sbasS'defaultFamily'
p2854
(dp2855
S'afm'
p2856
S'Helvetica'
p2857
sS'ttf'
p2858
S'Bitstream Vera Sans'
p2859
ssS'ttffiles'
p2860
(lp2861
S'/usr/local/lib/python2.7/site-packages/matplotlib/mpl-data/fonts/ttf/VeraMono.ttf'
p2862
aS'/usr/local/lib/python2.7/site-packages/matplotlib/mpl-data/fonts/ttf/cmr10.ttf'
p2863
aS'/usr/local/lib/python2.7/site-packages/matplotlib/mpl-data/fonts/ttf/STIXSizFourSymReg.ttf'
p2864
aS'/usr/local/lib/python2.7/site-packages/matplotlib/mpl-data/fonts/ttf/STIXSizTwoSymReg.ttf'
p2865
aS'/usr/local/lib/python2.7/site-packages/matplotlib/mpl-data/fonts/ttf/STIXSizThreeSymBol.ttf'
p2866
aS'/usr/local/lib/python2.7/site-packages/matplotlib/mpl-data/fonts/ttf/STIXGeneralBolIta.ttf'
p2867
aS'/usr/local/lib/python2.7/site-packages/matplotlib/mpl-data/fonts/ttf/VeraBI.ttf'
p2868
aS'/usr/local/lib/python2.7/site-packages/matplotlib/mpl-data/fonts/ttf/cmtt10.ttf'
p2869
aS'/usr/local/lib/python2.7/site-packages/matplotlib/mpl-data/fonts/ttf/STIXSizTwoSymBol.ttf'
p2870
aS'/usr/local/lib/python2.7/site-packages/matplotlib/mpl-data/fonts/ttf/STIXGeneral.ttf'
p2871
aS'/usr/local/lib/python2.7/site-packages/matplotlib/mpl-data/fonts/ttf/cmmi10.ttf'
p2872
aS'/usr/local/lib/python2.7/site-packages/matplotlib/mpl-data/fonts/ttf/STIXSizOneSymBol.ttf'
p2873
aS'/usr/local/lib/python2.7/site-packages/matplotlib/mpl-data/fonts/ttf/cmb10.ttf'
p2874
aS'/usr/local/lib/python2.7/site-packages/matplotlib/mpl-data/fonts/ttf/STIXSizThreeSymReg.ttf'
p2875
aS'/usr/local/lib/python2.7/site-packages/matplotlib/mpl-data/fonts/ttf/STIXSizFiveSymReg.ttf'
p2876
aS'/usr/local/lib/python2.7/site-packages/matplotlib/mpl-data/fonts/ttf/STIXGeneralItalic.ttf'
p2877
aS'/usr/local/lib/python2.7/site-packages/matplotlib/mpl-data/fonts/ttf/VeraBd.ttf'
p2878
aS'/usr/local/lib/python2.7/site-packages/matplotlib/mpl-data/fonts/ttf/cmss10.ttf'
p2879
aS'/usr/local/lib/python2.7/site-packages/matplotlib/mpl-data/fonts/ttf/VeraSeBd.ttf'
p2880
aS'/usr/local/lib/python2.7/site-packages/matplotlib/mpl-data/fonts/ttf/VeraMoBI.ttf'
p2881
aS'/usr/local/lib/python2.7/site-packages/matplotlib/mpl-data/fonts/ttf/VeraMoBd.ttf'
p2882
aS'/usr/local/lib/python2.7/site-packages/matplotlib/mpl-data/fonts/ttf/VeraMoIt.ttf'
p2883
aS'/usr/local/lib/python2.7/site-packages/matplotlib/mpl-data/fonts/ttf/Vera.ttf'
p2884
aS'/usr/local/lib/python2.7/site-packages/matplotlib/mpl-data/fonts/ttf/STIXNonUniBolIta.ttf'
p2885
aS'/usr/local/lib/python2.7/site-packages/matplotlib/mpl-data/fonts/ttf/STIXNonUniBol.ttf'
p2886
aS'/usr/local/lib/python2.7/site-packages/matplotlib/mpl-data/fonts/ttf/STIXSizOneSymReg.ttf'
p2887
aS'/usr/local/lib/python2.7/site-packages/matplotlib/mpl-data/fonts/ttf/STIXGeneralBol.ttf'
p2888
aS'/usr/local/lib/python2.7/site-packages/matplotlib/mpl-data/fonts/ttf/VeraIt.ttf'
p2889
aS'/usr/local/lib/python2.7/site-packages/matplotlib/mpl-data/fonts/ttf/STIXNonUni.ttf'
p2890
aS'/usr/local/lib/python2.7/site-packages/matplotlib/mpl-data/fonts/ttf/cmex10.ttf'
p2891
aS'/usr/local/lib/python2.7/site-packages/matplotlib/mpl-data/fonts/ttf/cmsy10.ttf'
p2892
aS'/usr/local/lib/python2.7/site-packages/matplotlib/mpl-data/fonts/ttf/STIXNonUniIta.ttf'
p2893
aS'/usr/local/lib/python2.7/site-packages/matplotlib/mpl-data/fonts/ttf/STIXSizFourSymBol.ttf'
p2894
aS'/usr/local/lib/python2.7/site-packages/matplotlib/mpl-data/fonts/ttf/VeraSe.ttf'
p2895
aS'/usr/X11R6/lib/X11/fonts/OTF/SyrCOMMardinBold.otf'
p2896
aS'/Library/Fonts/Trebuchet MS Italic.ttf'
p2897
aS'/Library/Fonts/MshtakanRegular.ttf'
p2898
aS'/Library/Fonts/MyriadPro-CondIt.otf'
p2899
aS'/Users/andrea/Library/Fonts/Fontin_Sans_SC_45b.otf'
p2900
aS'/usr/X11/lib/X11/fonts/OTF/SyrCOMUrhoy.otf'
p2901
aS'/Library/Fonts/PoplarStd.otf'
p2902
aS'/Library/Fonts/ArnoPro-SmbdSubhead.otf'
p2903
aS'/Users/andrea/.fonts/LiberationMono_Italic.ttf'
p2904
aS'/Library/Fonts/KozGoPr6N-ExtraLight.otf'
p2905
aS'/Library/Fonts/ArnoPro-SmbdItalicSubhead.otf'
p2906
aS'/Users/andrea/Library/Fonts/TradeGotBolConTweObl.otf'
p2907
aS'/Library/Fonts/Microsoft/Gill Sans MT Italic.ttf'
p2908
aS'/Library/Fonts/Times New Roman.ttf'
p2909
aS'/Users/andrea/Library/Fonts/Delicious-Heavy.otf'
p2910
aS'/Users/andrea/Library/Fonts/ALADDN.TTF'
p2911
aS'/Library/Fonts/NewPeninimMTBoldInclined.ttf'
p2912
aS'/Library/Fonts/NISC18030.ttf'
p2913
aS'/Users/andrea/Library/Fonts/AWConquerorInline-Regular.otf'
p2914
aS'/Users/andrea/Library/Fonts/Lat725Rm.ttf'
p2915
aS'/Library/Fonts/AppleMyungjo.ttf'
p2916
aS'/Library/Fonts/ArnoPro-BoldItalic.otf'
p2917
aS'/Library/Fonts/Osaka.ttf'
p2918
aS'/Users/andrea/.fonts/LiberationSans_Regular.ttf'
p2919
aS'/usr/X11R6/lib/X11/fonts/TTF/Vera.ttf'
p2920
aS'/Users/andrea/.fonts/LiberationSerif_BoldItalic.ttf'
p2921
aS'/Library/Fonts/Latin Modern/lmsans12-regular.otf'
p2922
aS'/usr/X11R6/lib/X11/fonts/TTF/VeraMono.ttf'
p2923
aS'/Library/Fonts/STIXSizThreeSymBol.otf'
p2924
aS'/System/Library/Fonts/Symbol.ttf'
p2925
aS'/usr/X11/lib/X11/fonts/OTF/SyrCOMCtesiphon.otf'
p2926
aS'/Library/Fonts/BellGothicStd-Black.otf'
p2927
aS'/Library/Fonts/AlBayan.ttf'
p2928
aS'/Library/Fonts/Microsoft/Candara Bold.ttf'
p2929
aS'/Library/Fonts/Microsoft/Tw Cen MT.ttf'
p2930
aS'/Library/Fonts/Latin Modern/lmromanslant12-regular.otf'
p2931
aS'/Library/Fonts/MyriadPro-It.otf'
p2932
aS'/usr/X11R6/lib/X11/fonts/TTF/luxirb.ttf'
p2933
aS'/Users/andrea/Library/Fonts/CENTAUR.TTF'
p2934
aS'/Users/andrea/Library/Fonts/palai.ttf'
p2935
aS'/Users/andrea/Library/Fonts/Menlo-Powerline-2-Powerline.otf'
p2936
aS'/Library/Fonts/TeX Gyre/texgyreadventor-regular.otf'
p2937
aS'/Library/Fonts/MinionPro-It.otf'
p2938
aS'/Library/Fonts/Latin Modern/lmroman7-regular.otf'
p2939
aS'/Users/andrea/Library/Fonts/GenR102.TTF'
p2940
aS'/Library/Fonts/ArnoPro-ItalicSmText.otf'
p2941
aS'/Users/andrea/Library/Fonts/TradeGot.otf'
p2942
aS'/Users/andrea/Library/Fonts/Diavlo_BOLD_II_37.otf'
p2943
aS'/Library/Fonts/Nadeem.ttf'
p2944
aS'/Users/andrea/.fonts/LiberationMono_Bold.ttf'
p2945
aS'/Library/Fonts/AlBayanBold.ttf'
p2946
aS'/Library/Fonts/KozGoPr6N-Regular.otf'
p2947
aS'/Library/Fonts/Arial Bold Italic.ttf'
p2948
aS'/Library/Fonts/TektonPro-Bold.otf'
p2949
aS'/Users/andrea/.fonts/LiberationSans_BoldItalic.ttf'
p2950
aS'/Library/Fonts/TeX Gyre/texgyrebonum-regular.otf'
p2951
aS'/usr/X11/lib/X11/fonts/OTF/SyrCOMBatnan.otf'
p2952
aS'/Library/Fonts/MshtakanBold.ttf'
p2953
aS'/Library/Fonts/MyriadArabic-It.otf'
p2954
aS'/Library/Fonts/NuevaStd-Italic.otf'
p2955
aS'/Library/Fonts/ArnoPro-Caption.otf'
p2956
aS'/Library/Fonts/Latin Modern/lmsans17-oblique.otf'
p2957
aS'/Library/Fonts/LetterGothicStd.otf'
p2958
aS'/Library/Fonts/STIXSizFiveSymReg.otf'
p2959
aS'/usr/X11/lib/X11/fonts/OTF/SyrCOMAdiabene.otf'
p2960
aS'/Library/Fonts/Latin Modern/lmromandunh10-regular.otf'
p2961
aS'/Library/Fonts/Latin Modern/lmroman8-italic.otf'
p2962
aS'/Users/andrea/Library/Fonts/AWConquerorSlab-Light.otf'
p2963
aS'/Library/Fonts/Latin Modern/lmmonoprop10-regular.otf'
p2964
aS'/Users/andrea/Library/Fonts/TradeGotBolTwoObl.otf'
p2965
aS'/Users/andrea/Library/Fonts/mensch-Powerline.otf'
p2966
aS'/Library/Fonts/Gurmukhi.ttf'
p2967
aS'/usr/X11/lib/X11/fonts/TTF/VeraSe.ttf'
p2968
aS'/Users/andrea/Library/Fonts/Delicious-Bold.otf'
p2969
aS'/Users/andrea/Library/Fonts/Anonymous Pro I.ttf'
p2970
aS'/System/Library/Fonts/Apple Color Emoji.ttf'
p2971
aS'/Library/Fonts/Microsoft/Cambria Italic.ttf'
p2972
aS'/Library/Fonts/TektonPro-BoldObl.otf'
p2973
aS'/Library/Fonts/Latin Modern/lmromanslant8-regular.otf'
p2974
aS'/usr/X11R6/lib/X11/fonts/TTF/luxirri.ttf'
p2975
aS'/usr/X11R6/lib/X11/fonts/TTF/VeraSeBd.ttf'
p2976
aS'/Library/Fonts/Latin Modern/lmsansquot8-boldoblique.otf'
p2977
aS'/Library/Fonts/AdobeMyungjoStd-Medium.otf'
p2978
aS'/Library/Fonts/\xe3\x83\x92\xe3\x83\xa9\xe3\x82\xad\xe3\x82\x99\xe3\x83\x8e\xe4\xb8\xb8\xe3\x82\xb3\xe3\x82\x99 Pro W4.otf'
p2979
aS'/Library/Fonts/Microsoft/Perpetua Bold Italic.ttf'
p2980
aS'/Library/Fonts/AdobeGothicStd-Bold.otf'
p2981
aS'/Users/andrea/Library/Fonts/CODE Light.otf'
p2982
aS'/usr/X11/lib/X11/fonts/OTF/SyrCOMTalada.otf'
p2983
aS'/Library/Fonts/NewPeninimMTInclined.ttf'
p2984
aS'/Library/Fonts/Microsoft/Verdana Bold.ttf'
p2985
aS'/Library/Fonts/MyriadPro-Semibold.otf'
p2986
aS'/Library/Fonts/ArnoPro-BoldItalicSmText.otf'
p2987
aS'/Library/Fonts/Microsoft/Verdana.ttf'
p2988
aS'/usr/X11R6/lib/X11/fonts/OTF/SyrCOMNisibin.otf'
p2989
aS'/Library/Fonts/Microsoft/Franklin Gothic Medium.ttf'
p2990
aS'/Library/Fonts/PCmyoungjo.ttf'
p2991
aS'/Library/Fonts/KozMinPr6N-Bold.otf'
p2992
aS'/Library/Fonts/Verdana Bold Italic.ttf'
p2993
aS'/Library/Fonts/Latin Modern/lmsansquot8-oblique.otf'
p2994
aS'/usr/X11/lib/X11/fonts/OTF/SyrCOMMalankara.otf'
p2995
aS'/usr/X11/lib/X11/fonts/OTF/SyrCOMEdessa.otf'
p2996
aS'/Library/Fonts/Kokonor.ttf'
p2997
aS'/usr/X11R6/lib/X11/fonts/OTF/SyrCOMEdessa.otf'
p2998
aS'/Library/Fonts/AdobeDevanagari-BoldItalic.otf'
p2999
aS'/System/Library/Fonts/Apple Braille.ttf'
p3000
aS'/Library/Fonts/\xe3\x83\x92\xe3\x83\xa9\xe3\x82\xad\xe3\x82\x99\xe3\x83\x8e\xe6\x98\x8e\xe6\x9c\x9d Pro W6.otf'
p3001
aS'/usr/X11R6/lib/X11/fonts/OTF/SyrCOMBatnanBold.otf'
p3002
aS'/Library/Fonts/Kailasa.ttf'
p3003
aS'/Users/andrea/Library/Fonts/STIXIntUpSmReg.otf'
p3004
aS'/Library/Fonts/Latin Modern/lmmonoproplt10-boldoblique.otf'
p3005
aS'/usr/X11R6/lib/X11/fonts/OTF/SyrCOMMalankara.otf'
p3006
aS'/Library/Fonts/ArnoPro-SmbdItalicSmText.otf'
p3007
aS'/Users/andrea/Library/Fonts/Anonymous Pro B.ttf'
p3008
aS'/Library/Fonts/STIXNonUniIta.otf'
p3009
aS'/Library/Fonts/Baghdad.ttf'
p3010
aS'/usr/X11/lib/X11/fonts/TTF/luxirbi.ttf'
p3011
aS'/Library/Fonts/TektonPro-BoldExt.otf'
p3012
aS'/Library/Fonts/ChaparralPro-Italic.otf'
p3013
aS'/Library/Fonts/Comic Sans MS Bold.ttf'
p3014
aS'/Library/Fonts/ArnoPro-SmText.otf'
p3015
aS'/Library/Fonts/ArnoPro-SmbdSmText.otf'
p3016
aS'/Library/Fonts/Microsoft/Constantia Italic.ttf'
p3017
aS'/usr/X11/lib/X11/fonts/TTF/luxisr.ttf'
p3018
aS'/Users/andrea/Library/Fonts/AWConquerorCarved-Two.otf'
p3019
aS'/Library/Fonts/AGaramondPro-BoldItalic.otf'
p3020
aS'/usr/X11R6/lib/X11/fonts/OTF/SyrCOMTurAbdin.otf'
p3021
aS'/Users/andrea/Library/Fonts/Dekar.otf'
p3022
aS'/Library/Fonts/AppleSDGothicNeo-SemiBold.otf'
p3023
aS'/Library/Fonts/STIXNonUniBol.otf'
p3024
aS'/Library/Fonts/Webdings.ttf'
p3025
aS'/System/Library/Fonts/Apple Braille Pinpoint 6 Dot.ttf'
p3026
aS'/Library/Fonts/KozMinPr6N-Heavy.otf'
p3027
aS'/usr/X11/lib/X11/fonts/TTF/VeraSeBd.ttf'
p3028
aS'/Library/Fonts/KozGoPro-Heavy.otf'
p3029
aS'/Library/Fonts/Microsoft/Franklin Gothic Book Italic.ttf'
p3030
aS'/Library/Fonts/Latin Modern/lmmonoproplt10-bold.otf'
p3031
aS'/Library/Fonts/ArnoPro-SmbdItalic.otf'
p3032
aS'/Users/andrea/Library/Fonts/TEMPSITC.TTF'
p3033
aS'/usr/X11R6/lib/X11/fonts/OTF/GohaTibebZemen.otf'
p3034
aS'/Library/Fonts/Microsoft/Palatino Linotype Bold Italic.ttf'
p3035
aS'/Library/Fonts/STIXIntUpSmReg.otf'
p3036
aS'/Library/Fonts/Courier New Italic.ttf'
p3037
aS'/Library/Fonts/Microsoft/Meiryo.ttf'
p3038
aS'/Library/Fonts/MinionPro-MediumIt.otf'
p3039
aS'/Library/Fonts/KozMinPro-Regular.otf'
p3040
aS'/Library/Fonts/Kai.ttf'
p3041
aS'/Library/Fonts/TeX Gyre/texgyrepagella-bold.otf'
p3042
aS'/Library/Fonts/Latin Modern/lmmonoproplt10-regular.otf'
p3043
aS'/Library/Fonts/Microsoft/Verdana Bold Italic.ttf'
p3044
aS'/Library/Fonts/Arial Black.ttf'
p3045
aS'/Library/Fonts/MyriadPro-SemiboldIt.otf'
p3046
aS'/usr/X11/lib/X11/fonts/TTF/luxirr.ttf'
p3047
aS'/Library/Fonts/Latin Modern/lmroman5-regular.otf'
p3048
aS'/usr/X11/lib/X11/fonts/OTF/SyrCOMMardin.otf'
p3049
aS'/Library/Fonts/STIXGeneralItalic.otf'
p3050
aS'/Users/andrea/Library/Fonts/Lat725BI.ttf'
p3051
aS'/Library/Fonts/MyriadPro-BoldCondIt.otf'
p3052
aS'/Library/Fonts/Latin Modern/lmmonocaps10-oblique.otf'
p3053
aS'/Users/andrea/Library/Fonts/ALADDNEI.TTF'
p3054
aS'/usr/X11R6/lib/X11/fonts/TTF/VeraBd.ttf'
p3055
aS'/Library/Fonts/STIXSizFourSymReg.otf'
p3056
aS'/Library/Fonts/AdobeKaitiStd-Regular.otf'
p3057
aS'/Library/Fonts/NuevaStd-Cond.otf'
p3058
aS'/Library/Fonts/Wingdings 3.ttf'
p3059
aS'/Library/Fonts/ArialHB.ttf'
p3060
aS'/Library/Fonts/Microsoft/Wingdings 3.ttf'
p3061
aS'/Library/Fonts/Latin Modern/lmsans10-bold.otf'
p3062
aS'/Library/Fonts/Microsoft/Consolas.ttf'
p3063
aS'/Library/Fonts/Microsoft/Perpetua Italic.ttf'
p3064
aS'/Library/Fonts/Latin Modern/lmroman6-regular.otf'
p3065
aS'/Library/Fonts/CorsivaBold.ttf'
p3066
aS'/Library/Fonts/KozMinPr6N-Light.otf'
p3067
aS'/Library/Fonts/Microsoft/PMingLiU.ttf'
p3068
aS'/Library/Fonts/Microsoft/Arial.ttf'
p3069
aS'/Library/Fonts/STIXSizFourSymBol.otf'
p3070
aS'/Library/Fonts/KozGoPr6N-Medium.otf'
p3071
aS'/Library/Fonts/Microsoft/Marlett.ttf'
p3072
aS'/Library/Fonts/Microsoft/Calibri Bold.ttf'
p3073
aS'/Library/Fonts/TeX Gyre/texgyreheroscn-bold.otf'
p3074
aS'/Library/Fonts/Latin Modern/lmsans10-oblique.otf'
p3075
aS'/Library/Fonts/Georgia Italic.ttf'
p3076
aS'/Library/Fonts/Wingdings.ttf'
p3077
aS'/Library/Fonts/Impact.ttf'
p3078
aS'/Library/Fonts/TeX Gyre/texgyrebonum-bold.otf'
p3079
aS'/Users/andrea/Library/Fonts/GenAR102.TTF'
p3080
aS'/Users/andrea/Library/Fonts/TradeGotBol.otf'
p3081
aS'/Library/Fonts/Tahoma Bold.ttf'
p3082
aS'/Library/Fonts/Georgia Bold Italic.ttf'
p3083
aS'/Library/Fonts/TektonPro-BoldCond.otf'
p3084
aS'/Library/Fonts/Latin Modern/lmsans10-boldoblique.otf'
p3085
aS'/usr/X11R6/lib/X11/fonts/TTF/VeraMoBd.ttf'
p3086
aS'/Library/Fonts/MyriadArabic-BoldIt.otf'
p3087
aS'/Library/Fonts/Latin Modern/lmsans9-oblique.otf'
p3088
aS'/usr/X11/lib/X11/fonts/TTF/luximbi.ttf'
p3089
aS'/Library/Fonts/ArnoPro-BoldItalicCaption.otf'
p3090
aS'/Library/Fonts/Hoefler Text Ornaments.ttf'
p3091
aS'/Library/Fonts/ChaparralPro-LightIt.otf'
p3092
aS'/Users/andrea/Library/Fonts/Eurostile.ttf'
p3093
aS'/Library/Fonts/AdobeArabic-Italic.otf'
p3094
aS'/System/Library/Fonts/\xe3\x83\x92\xe3\x83\xa9\xe3\x82\xad\xe3\x82\x99\xe3\x83\x8e\xe6\x98\x8e\xe6\x9c\x9d ProN W6.otf'
p3095
aS'/Users/andrea/Library/Fonts/AWConquerorCarved-Regular.otf'
p3096
aS'/Library/Fonts/Latin Modern/lmromandemi10-oblique.otf'
p3097
aS'/Library/Fonts/RosewoodStd-Regular.otf'
p3098
aS'/Users/andrea/Library/Fonts/EleganTech-.ttf'
p3099
aS'/Users/andrea/Library/Fonts/KisIt___.ttf'
p3100
aS'/Library/Fonts/Latin Modern/lmmonoprop10-oblique.otf'
p3101
aS'/Users/andrea/Library/Fonts/DoulosSILR.ttf'
p3102
aS'/Library/Fonts/TeX Gyre/texgyreschola-bolditalic.otf'
p3103
aS'/Library/Fonts/AdobeArabic-Bold.otf'
p3104
aS'/Library/Fonts/Pilgiche.ttf'
p3105
aS'/Library/Fonts/Microsoft/Gill Sans MT.ttf'
p3106
aS'/Library/Fonts/Latin Modern/lmsans17-regular.otf'
p3107
aS'/Library/Fonts/Latin Modern/lmsans12-oblique.otf'
p3108
aS'/Library/Fonts/MyriadArabic-Regular.otf'
p3109
aS'/Library/Fonts/ArnoPro-ItalicCaption.otf'
p3110
aS'/Library/Fonts/Microsoft/Verdana Italic.ttf'
p3111
aS'/Library/Fonts/GujaratiMTBold.ttf'
p3112
aS'/Library/Fonts/Latin Modern/lmroman10-regular.otf'
p3113
aS'/Library/Fonts/LetterGothicStd-BoldSlanted.otf'
p3114
aS'/Users/andrea/Library/Fonts/duepuntozero_bold.ttf'
p3115
aS'/Library/Fonts/NuevaStd-CondItalic.otf'
p3116
aS'/Users/andrea/.fonts/LiberationMono_Regular.ttf'
p3117
aS'/Library/Fonts/Microsoft/Arial Italic.ttf'
p3118
aS'/usr/X11/lib/X11/fonts/TTF/luxisri.ttf'
p3119
aS'/System/Library/Fonts/ZapfDingbats.ttf'
p3120
aS'/Library/Fonts/Latin Modern/lmmonoslant10-regular.otf'
p3121
aS'/Library/Fonts/Microsoft/Calibri Bold Italic.ttf'
p3122
aS'/Users/andrea/Library/Fonts/HandelGotDLig.ttf'
p3123
aS'/Library/Fonts/Apple LiSung Light.ttf'
p3124
aS'/Library/Fonts/Microsoft/Corbel Bold Italic.ttf'
p3125
aS'/Users/andrea/Library/Fonts/Fontin_Sans_B_45b.otf'
p3126
aS'/Library/Fonts/AGaramondPro-Bold.otf'
p3127
aS'/Library/Fonts/StencilStd.otf'
p3128
aS'/Users/andrea/Library/Fonts/Nymphette.ttf'
p3129
aS'/Library/Fonts/ArnoPro-Regular.otf'
p3130
aS'/Users/andrea/Library/Fonts/whola.ttf'
p3131
aS'/Library/Fonts/MyriadPro-Regular.otf'
p3132
aS'/Library/Fonts/Latin Modern/lmmonoproplt10-oblique.otf'
p3133
aS'/Library/Fonts/MyriadPro-Cond.otf'
p3134
aS'/usr/X11R6/lib/X11/fonts/OTF/SyrCOMBatnan.otf'
p3135
aS'/Library/Fonts/Trebuchet MS Bold Italic.ttf'
p3136
aS'/Library/Fonts/ArnoPro-BoldDisplay.otf'
p3137
aS'/Library/Fonts/STIXIntSmBol.otf'
p3138
aS'/Library/Fonts/AdobeMingStd-Light.otf'
p3139
aS'/Library/Fonts/TeX Gyre/texgyreheroscn-bolditalic.otf'
p3140
aS'/Library/Fonts/Latin Modern/lmmonolt10-oblique.otf'
p3141
aS'/Library/Fonts/Latin Modern/lmromanunsl10-regular.otf'
p3142
aS'/Library/Fonts/Latin Modern/lmsans8-oblique.otf'
p3143
aS'/Library/Fonts/Microsoft/Meiryo Bold.ttf'
p3144
aS'/Library/Fonts/Microsoft/Corbel Bold.ttf'
p3145
aS'/Library/Fonts/Latin Modern/lmroman5-bold.otf'
p3146
aS'/Users/andrea/Library/Fonts/Inconsolata-dz.otf'
p3147
aS'/Library/Fonts/CooperBlackStd.otf'
p3148
aS'/Library/Fonts/Verdana Italic.ttf'
p3149
aS'/usr/X11R6/lib/X11/fonts/OTF/SyrCOMMidyat.otf'
p3150
aS'/usr/X11R6/lib/X11/fonts/OTF/SyrCOMCtesiphon.otf'
p3151
aS'/Users/andrea/Library/Fonts/GenI102.TTF'
p3152
aS'/Library/Fonts/BellGothicStd-Bold.otf'
p3153
aS'/Library/Fonts/KozGoPro-ExtraLight.otf'
p3154
aS'/Users/andrea/Library/Fonts/Lat725It.ttf'
p3155
aS'/Library/Fonts/Microsoft/Tw Cen MT Italic.ttf'
p3156
aS'/Library/Fonts/Microsoft/Bookshelf Symbol 7.ttf'
p3157
aS'/Library/Fonts/ChaparralPro-BoldIt.otf'
p3158
aS'/Library/Fonts/Microsoft/Consolas Bold.ttf'
p3159
aS'/usr/X11/lib/X11/fonts/TTF/VeraIt.ttf'
p3160
aS'/Users/andrea/Library/Fonts/CharisSILR.ttf'
p3161
aS'/Users/andrea/Library/Fonts/Fontin_Sans_R_45b.otf'
p3162
aS'/Library/Fonts/TeX Gyre/texgyrebonum-bolditalic.otf'
p3163
aS'/Library/Fonts/TeX Gyre/texgyrepagella-bolditalic.otf'
p3164
aS'/Library/Fonts/Latin Modern/lmroman12-italic.otf'
p3165
aS'/Library/Fonts/AdobeSongStd-Light.otf'
p3166
aS'/Library/Fonts/Hiragino Sans GB W3.otf'
p3167
aS'/Library/Fonts/ArnoPro-SmbdDisplay.otf'
p3168
aS'/Users/andrea/Library/Fonts/CharisSILBI.ttf'
p3169
aS'/Users/andrea/Library/Fonts/LektonBold034.otf'
p3170
aS'/Library/Fonts/Latin Modern/lmmath-regular.otf'
p3171
aS'/Library/Fonts/AdobeHebrew-BoldItalic.otf'
p3172
aS'/Users/andrea/.fonts/LiberationSerif_Regular.ttf'
p3173
aS'/Library/Fonts/Verdana.ttf'
p3174
aS'/Users/andrea/Library/Fonts/MONICA-H.TTF'
p3175
aS'/Users/andrea/Library/Fonts/OrnamentsScroll.ttf'
p3176
aS'/Users/andrea/Library/Fonts/xmoovgeek.ttf'
p3177
aS'/usr/X11/lib/X11/fonts/TTF/luxisb.ttf'
p3178
aS'/Library/Fonts/STIXNonUni.otf'
p3179
aS'/Users/andrea/Library/Fonts/STIXGeneralItalic.otf'
p3180
aS'/Library/Fonts/Arial Italic.ttf'
p3181
aS'/Library/Fonts/Trebuchet MS Bold.ttf'
p3182
aS'/Library/Fonts/\xe5\x84\xb7\xe5\xae\x8b Pro.ttf'
p3183
aS'/Users/andrea/Library/Fonts/palab.ttf'
p3184
aS'/Library/Fonts/STIXNonUniBolIta.otf'
p3185
aS'/Library/Fonts/AdobeDevanagari-Bold.otf'
p3186
aS'/Library/Fonts/BrushScriptStd.otf'
p3187
aS'/Library/Fonts/Latin Modern/lmmono8-regular.otf'
p3188
aS'/Library/Fonts/Raanana.ttf'
p3189
aS'/System/Library/Fonts/ThonburiBold.ttf'
p3190
aS'/usr/X11R6/lib/X11/fonts/TTF/luxirbi.ttf'
p3191
aS'/Library/Fonts/AppleSDGothicNeo-Light.otf'
p3192
aS'/Library/Fonts/Microsoft/Constantia Bold Italic.ttf'
p3193
aS'/usr/X11/lib/X11/fonts/TTF/VeraMoBI.ttf'
p3194
aS'/Library/Fonts/ArnoPro-Display.otf'
p3195
aS'/Library/Fonts/STIXIntSmReg.otf'
p3196
aS'/Library/Fonts/MyriadPro-BoldCond.otf'
p3197
aS'/Users/andrea/Library/Fonts/Fontin-SmallCaps.otf'
p3198
aS'/Library/Fonts/ACaslonPro-Italic.otf'
p3199
aS'/Library/Fonts/Microsoft/MS PGothic.ttf'
p3200
aS'/Library/Fonts/Microsoft/Constantia.ttf'
p3201
aS'/Library/Fonts/Chalkduster.ttf'
p3202
aS'/usr/X11/lib/X11/fonts/OTF/SyrCOMAntioch.otf'
p3203
aS'/Users/andrea/Library/Fonts/ChopinScript.otf'
p3204
aS'/usr/X11/lib/X11/fonts/OTF/SyrCOMBatnanBold.otf'
p3205
aS'/Library/Fonts/MinionPro-BoldIt.otf'
p3206
aS'/usr/X11/lib/X11/fonts/OTF/SyrCOMJerusalemBold.otf'
p3207
aS'/Users/andrea/Library/Fonts/raleway_thin.otf'
p3208
aS'/Library/Fonts/ArnoPro-BoldSubhead.otf'
p3209
aS'/Library/Fonts/ACaslonPro-Regular.otf'
p3210
aS'/Library/Fonts/STIXIntUpReg.otf'
p3211
aS'/Library/Fonts/MesquiteStd.otf'
p3212
aS'/Users/andrea/Library/Fonts/STIXIntSmReg.otf'
p3213
aS'/Users/andrea/Library/Fonts/STIXGeneralBolIta.otf'
p3214
aS'/Library/Fonts/BigCaslon.ttf'
p3215
aS'/Library/Fonts/AdobeHebrew-Italic.otf'
p3216
aS'/Library/Fonts/Ayuthaya.ttf'
p3217
aS'/usr/X11R6/lib/X11/fonts/OTF/SyrCOMKharput.otf'
p3218
aS'/usr/X11R6/lib/X11/fonts/OTF/SyrCOMJerusalemBold.otf'
p3219
aS'/Library/Fonts/OratorStd.otf'
p3220
aS'/Library/Fonts/BlackoakStd.otf'
p3221
aS'/Library/Fonts/\xe3\x83\x92\xe3\x83\xa9\xe3\x82\xad\xe3\x82\x99\xe3\x83\x8e\xe8\xa7\x92\xe3\x82\xb3\xe3\x82\x99 Pro W6.otf'
p3222
aS'/Library/Fonts/ArnoPro-LightDisplay.otf'
p3223
aS'/Library/Fonts/ArnoPro-SmbdItalicDisplay.otf'
p3224
aS'/Library/Fonts/Microsoft/Arial Bold Italic.ttf'
p3225
aS'/Library/Fonts/Latin Modern/lmroman7-italic.otf'
p3226
aS'/Library/Fonts/ArnoPro-Italic.otf'
p3227
aS'/Library/Fonts/Microsoft/MS Reference Specialty.ttf'
p3228
aS'/Users/andrea/.fonts/LiberationSans_Italic.ttf'
p3229
aS'/Users/andrea/Library/Fonts/AWConquerorCarved-Four.otf'
p3230
aS'/Library/Fonts/MinionPro-Bold.otf'
p3231
aS'/usr/X11R6/lib/X11/fonts/OTF/SyrCOMUrhoy.otf'
p3232
aS'/Library/Fonts/TeX Gyre/texgyrepagella-regular.otf'
p3233
aS'/Library/Fonts/MinionPro-BoldCnIt.otf'
p3234
aS'/Library/Fonts/Andale Mono.ttf'
p3235
aS'/Library/Fonts/Microsoft/Consolas Italic.ttf'
p3236
aS'/Library/Fonts/Latin Modern/lmroman10-bold.otf'
p3237
aS'/Library/Fonts/LetterGothicStd-Bold.otf'
p3238
aS'/Library/Fonts/Silom.ttf'
p3239
aS'/Library/Fonts/TeX Gyre/texgyreschola-italic.otf'
p3240
aS'/Library/Fonts/MshtakanBoldOblique.ttf'
p3241
aS'/usr/X11R6/lib/X11/fonts/TTF/luxisri.ttf'
p3242
aS'/Library/Fonts/\xe9\x9b\x85\xe7\x97\x9e-\xe7\xae\x80.otf'
p3243
aS'/usr/X11/lib/X11/fonts/TTF/luximr.ttf'
p3244
aS'/Library/Fonts/Latin Modern/lmmonoltcond10-oblique.otf'
p3245
aS'/Library/Fonts/AdobeFanHeitiStd-Bold.otf'
p3246
aS'/Library/Fonts/KozGoPr6N-Heavy.otf'
p3247
aS'/Library/Fonts/Microsoft/Gulim.ttf'
p3248
aS'/Library/Fonts/Lao Sangam MN.ttf'
p3249
aS'/usr/X11R6/lib/X11/fonts/TTF/GohaTibebZemen.ttf'
p3250
aS'/Library/Fonts/KufiStandardGK.ttf'
p3251
aS'/usr/X11R6/lib/X11/fonts/OTF/SyrCOMJerusalemItalic.otf'
p3252
aS'/Library/Fonts/Latin Modern/lmmonocaps10-regular.otf'
p3253
aS'/Library/Fonts/Hei.ttf'
p3254
aS'/Library/Fonts/Latin Modern/lmroman9-italic.otf'
p3255
aS'/Library/Fonts/TeX Gyre/texgyreschola-bold.otf'
p3256
aS'/Library/Fonts/Microsoft/Cambria Bold Italic.ttf'
p3257
aS'/Library/Fonts/Microsoft/Gabriola.ttf'
p3258
aS'/System/Library/Fonts/\xe3\x83\x92\xe3\x83\xa9\xe3\x82\xad\xe3\x82\x99\xe3\x83\x8e\xe6\x98\x8e\xe6\x9c\x9d ProN W3.otf'
p3259
aS'/Library/Fonts/ACaslonPro-BoldItalic.otf'
p3260
aS'/Users/andrea/Library/Fonts/Tallys_15.otf'
p3261
aS'/Library/Fonts/ACaslonPro-SemiboldItalic.otf'
p3262
aS'/Library/Fonts/GaramondPremrPro-Smbd.otf'
p3263
aS'/Users/andrea/Library/Fonts/FRAHVIT.TTF'
p3264
aS'/Library/Fonts/TeX Gyre/texgyreheros-bolditalic.otf'
p3265
aS'/Library/Fonts/ArnoPro-ItalicSubhead.otf'
p3266
aS'/Library/Fonts/AdobeNaskh-Medium.otf'
p3267
aS'/Library/Fonts/Latin Modern/lmroman8-bold.otf'
p3268
aS'/usr/X11R6/lib/X11/fonts/TTF/VeraBI.ttf'
p3269
aS'/Library/Fonts/OCRAStd.otf'
p3270
aS'/Library/Fonts/Verdana Bold.ttf'
p3271
aS'/usr/X11/lib/X11/fonts/TTF/luximb.ttf'
p3272
aS'/Users/andrea/Library/Fonts/STIXIntSmBol.otf'
p3273
aS'/Library/Fonts/Latin Modern/lmroman17-regular.otf'
p3274
aS'/Library/Fonts/BickhamScriptPro-Regular.otf'
p3275
aS'/Library/Fonts/ArnoPro-Subhead.otf'
p3276
aS'/Library/Fonts/STIXSizThreeSymReg.otf'
p3277
aS'/Users/andrea/Library/Fonts/Lat725Bd.ttf'
p3278
aS'/usr/X11R6/lib/X11/fonts/OTF/SyrCOMTalada.otf'
p3279
aS'/Library/Fonts/Latin Modern/lmroman10-italic.otf'
p3280
aS'/Library/Fonts/NewPeninimMT.ttf'
p3281
aS'/usr/X11/lib/X11/fonts/OTF/SyrCOMNisibin.otf'
p3282
aS'/Library/Fonts/TeX Gyre/texgyreheros-regular.otf'
p3283
aS'/Users/andrea/Library/Fonts/CharisSILI.ttf'
p3284
aS'/Library/Fonts/Arial.ttf'
p3285
aS'/Library/Fonts/TeX Gyre/texgyrechorus-mediumitalic.otf'
p3286
aS'/Library/Fonts/AppleGothic.ttf'
p3287
aS'/Users/andrea/.fonts/LiberationMono_BoldItalic.ttf'
p3288
aS'/Users/andrea/Library/Fonts/CODE Bold.otf'
p3289
aS'/Users/andrea/Library/Fonts/TradeGotObl.otf'
p3290
aS'/Users/andrea/Library/Fonts/STIXIntDReg.otf'
p3291
aS'/Library/Fonts/Arial Narrow.ttf'
p3292
aS'/System/Library/Fonts/AppleSDGothicNeo-Bold.otf'
p3293
aS'/Library/Fonts/MshtakanOblique.ttf'
p3294
aS'/Users/andrea/Library/Fonts/Delicious-Roman.otf'
p3295
aS'/Library/Fonts/Microsoft/Times New Roman Italic.ttf'
p3296
aS'/Library/Fonts/Microsoft/Times New Roman.ttf'
p3297
aS'/Library/Fonts/GaramondPremrPro.otf'
p3298
aS'/Library/Fonts/Corsiva.ttf'
p3299
aS'/usr/X11/lib/X11/fonts/TTF/luximri.ttf'
p3300
aS'/Users/andrea/Library/Fonts/Inconsolata-dz-Powerline.otf'
p3301
aS'/Users/andrea/Library/Fonts/Dorcla__.ttf'
p3302
aS'/usr/X11R6/lib/X11/fonts/TTF/VeraMoIt.ttf'
p3303
aS'/Users/andrea/Library/Fonts/TradeGotConEigObl.otf'
p3304
aS'/usr/X11/lib/X11/fonts/OTF/SyrCOMMardinBold.otf'
p3305
aS'/Library/Fonts/Myanmar Sangam MN.ttf'
p3306
aS'/Users/andrea/Library/Fonts/Fontin_Sans_BI_45b.otf'
p3307
aS'/Users/andrea/Library/Fonts/andrewsc.ttf'
p3308
aS'/Library/Fonts/Arial Narrow Bold.ttf'
p3309
aS'/Library/Fonts/Times New Roman Italic.ttf'
p3310
aS'/Library/Fonts/Georgia.ttf'
p3311
aS'/Library/Fonts/NuevaStd-BoldCondItalic.otf'
p3312
aS'/Library/Fonts/CharlemagneStd-Bold.otf'
p3313
aS'/Library/Fonts/PrestigeEliteStd-Bd.otf'
p3314
aS'/Library/Fonts/Microsoft/Constantia Bold.ttf'
p3315
aS'/Library/Fonts/MinionPro-Regular.otf'
p3316
aS'/usr/X11/lib/X11/fonts/TTF/luxirb.ttf'
p3317
aS'/Library/Fonts/Latin Modern/lmroman6-bold.otf'
p3318
aS'/Library/Fonts/Times New Roman Bold Italic.ttf'
p3319
aS'/Library/Fonts/Arial Narrow Italic.ttf'
p3320
aS'/Library/Fonts/ArnoPro-Smbd.otf'
p3321
aS'/Library/Fonts/\xe5\x84\xb7\xe9\xbb\x91 Pro.ttf'
p3322
aS'/usr/X11/lib/X11/fonts/TTF/VeraMono.ttf'
p3323
aS'/System/Library/Fonts/AppleSDGothicNeo-Regular.otf'
p3324
aS'/Library/Fonts/Latin Modern/lmsansquot8-bold.otf'
p3325
aS'/Library/Fonts/Microsoft/Arial Bold.ttf'
p3326
aS'/Users/andrea/Library/Fonts/TradeGotBolConTwe.otf'
p3327
aS'/Library/Fonts/Microsoft/Tw Cen MT Bold.ttf'
p3328
aS'/Library/Fonts/PlantagenetCherokee.ttf'
p3329
aS'/Library/Fonts/BiauKai.ttf'
p3330
aS'/Users/andrea/Library/Fonts/STIXIntUpBol.otf'
p3331
aS'/Library/Fonts/Microsoft/Brush Script.ttf'
p3332
aS'/Users/andrea/.fonts/LiberationSerif_Bold.ttf'
p3333
aS'/Library/Fonts/Microsoft/Tw Cen MT Bold Italic.ttf'
p3334
aS'/Library/Fonts/STIXVar.otf'
p3335
aS'/Library/Fonts/Microsoft/Candara Bold Italic.ttf'
p3336
aS'/Users/andrea/Library/Fonts/STIXIntUpDBol.otf'
p3337
aS'/System/Library/Fonts/\xe3\x83\x92\xe3\x83\xa9\xe3\x82\xad\xe3\x82\x99\xe3\x83\x8e\xe8\xa7\x92\xe3\x82\xb3\xe3\x82\x99 ProN W6.otf'
p3338
aS'/Library/Fonts/Latin Modern/lmmono10-regular.otf'
p3339
aS'/Library/Fonts/BirchStd.otf'
p3340
aS'/Users/andrea/Library/Fonts/Cardo98s.ttf'
p3341
aS'/Library/Fonts/Microsoft/Cambria Math.ttf'
p3342
aS'/Users/andrea/Library/Fonts/Futura Bold BT.ttf'
p3343
aS'/Users/andrea/Library/Fonts/Anonymous Pro BI.ttf'
p3344
aS'/Users/andrea/Library/Fonts/Fontin-Bold.otf'
p3345
aS'/Users/andrea/Library/Fonts/STIXGeneralBol.otf'
p3346
aS'/Library/Fonts/Latin Modern/lmsansdemicond10-regular.otf'
p3347
aS'/Library/Fonts/Skia.ttf'
p3348
aS'/Library/Fonts/KozGoPr6N-Bold.otf'
p3349
aS'/Library/Fonts/AdobeArabic-Regular.otf'
p3350
aS'/usr/X11R6/lib/X11/fonts/TTF/luxisbi.ttf'
p3351
aS'/usr/X11R6/lib/X11/fonts/OTF/SyrCOMJerusalem.otf'
p3352
aS'/Users/andrea/Library/Fonts/AWConquerorSans-Light.otf'
p3353
aS'/Library/Fonts/KozMinPro-Heavy.otf'
p3354
aS'/Users/andrea/Library/Fonts/TradeGotLHBolExt.otf'
p3355
aS'/Library/Fonts/\xe5\x8d\x8e\xe6\x96\x87\xe4\xbb\xbf\xe5\xae\x8b.ttf'
p3356
aS'/Library/Fonts/ArnoPro-Bold.otf'
p3357
aS'/Library/Fonts/LithosPro-Regular.otf'
p3358
aS'/usr/X11/lib/X11/fonts/TTF/VeraMoBd.ttf'
p3359
aS'/Users/andrea/Library/Fonts/CharisSILB.ttf'
p3360
aS'/Library/Fonts/TrajanPro-Regular.otf'
p3361
aS'/Library/Fonts/KozMinPro-Bold.otf'
p3362
aS'/Library/Fonts/Microsoft/Perpetua.ttf'
p3363
aS'/Library/Fonts/NuevaStd-BoldCond.otf'
p3364
aS'/Library/Fonts/Microsoft/Cambria Bold.ttf'
p3365
aS'/Library/Fonts/TeX Gyre/texgyrepagella-italic.otf'
p3366
aS'/Library/Fonts/Latin Modern/lmsans10-regular.otf'
p3367
aS'/Library/Fonts/Courier New Bold Italic.ttf'
p3368
aS'/usr/X11/lib/X11/fonts/TTF/VeraBd.ttf'
p3369
aS'/Users/andrea/Library/Fonts/Neu_Eichmass.ttf'
p3370
aS'/Users/andrea/Library/Fonts/STIXGeneral.otf'
p3371
aS'/Library/Fonts/Arial Rounded Bold.ttf'
p3372
aS'/Library/Fonts/DevanagariMTBold.ttf'
p3373
aS'/Library/Fonts/TrajanPro-Bold.otf'
p3374
aS'/Library/Fonts/AdobeArabic-BoldItalic.otf'
p3375
aS'/Library/Fonts/ArnoPro-SmbdItalicCaption.otf'
p3376
aS'/Library/Fonts/KozGoPr6N-Light.otf'
p3377
aS'/Library/Fonts/Latin Modern/lmroman9-bold.otf'
p3378
aS'/Library/Fonts/Microsoft/Franklin Gothic Medium Italic.ttf'
p3379
aS'/Users/andrea/Library/Fonts/TradeGotBolObl.otf'
p3380
aS'/Library/Fonts/Latin Modern/lmmono12-regular.otf'
p3381
aS'/Users/andrea/Library/Fonts/FRAHV.TTF'
p3382
aS'/Library/Fonts/Khmer Sangam MN.ttf'
p3383
aS'/usr/X11/lib/X11/fonts/OTF/SyrCOMUrhoyBold.otf'
p3384
aS'/Library/Fonts/InaiMathi.ttf'
p3385
aS'/Library/Fonts/Latin Modern/lmromancaps10-regular.otf'
p3386
aS'/Library/Fonts/TeX Gyre/texgyrebonum-italic.otf'
p3387
aS'/Library/Fonts/Microsoft/Cambria.ttf'
p3388
aS'/Library/Fonts/Latin Modern/lmroman10-bolditalic.otf'
p3389
aS'/Library/Fonts/Microsoft/Batang.ttf'
p3390
aS'/Library/Fonts/KozGoPro-Light.otf'
p3391
aS'/Library/Fonts/KozMinPro-Medium.otf'
p3392
aS'/usr/X11R6/lib/X11/fonts/TTF/luxirr.ttf'
p3393
aS'/Library/Fonts/BickhamScriptPro-Bold.otf'
p3394
aS'/Library/Fonts/MinionPro-Semibold.otf'
p3395
aS'/Users/andrea/Library/Fonts/number_one.ttf'
p3396
aS'/Library/Fonts/TeX Gyre/texgyreheroscn-italic.otf'
p3397
aS'/Users/andrea/Library/Fonts/EuropeUnderground_light.ttf'
p3398
aS'/Users/andrea/Library/Fonts/golem.ttf'
p3399
aS'/Library/Fonts/LetterGothicStd-Slanted.otf'
p3400
aS'/Library/Fonts/DecoTypeNaskh.ttf'
p3401
aS'/Library/Fonts/TeX Gyre/texgyretermes-bold.otf'
p3402
aS'/Library/Fonts/Latin Modern/lmromanslant10-regular.otf'
p3403
aS'/Users/andrea/Library/Fonts/palabi.ttf'
p3404
aS'/Library/Fonts/MyriadPro-BoldIt.otf'
p3405
aS'/Users/andrea/Library/Fonts/TradeGotLigObl.otf'
p3406
aS'/Library/Fonts/HeadlineA.ttf'
p3407
aS'/Users/andrea/Library/Fonts/ALADDNI.TTF'
p3408
aS'/Users/andrea/Library/Fonts/STIXIntDBol.otf'
p3409
aS'/Library/Fonts/ArialHBBold.ttf'
p3410
aS'/System/Library/Fonts/Keyboard.ttf'
p3411
aS'/Library/Fonts/\xe3\x83\x92\xe3\x83\xa9\xe3\x82\xad\xe3\x82\x99\xe3\x83\x8e\xe8\xa7\x92\xe3\x82\xb3\xe3\x82\x99 Std W8.otf'
p3412
aS'/Library/Fonts/Microsoft/Lucida Sans Unicode.ttf'
p3413
aS'/Library/Fonts/Hiragino Sans GB W6.otf'
p3414
aS'/System/Library/Fonts/Geeza Pro.ttf'
p3415
aS'/usr/X11R6/lib/X11/fonts/TTF/luximbi.ttf'
p3416
aS'/Library/Fonts/Microsoft/Consolas Bold Italic.ttf'
p3417
aS'/Library/Fonts/Microsoft Sans Serif.ttf'
p3418
aS'/Library/Fonts/TeX Gyre/texgyreschola-regular.otf'
p3419
aS'/Users/andrea/Library/Fonts/Inconsolata.otf'
p3420
aS'/Users/andrea/Library/Fonts/STIXIntUpReg.otf'
p3421
aS'/Library/Fonts/Microsoft/Lucida Console.ttf'
p3422
aS'/Library/Fonts/STIXIntUpDBol.otf'
p3423
aS'/Library/Fonts/MyriadPro-Bold.otf'
p3424
aS'/Users/andrea/Library/Fonts/ALADDNE.TTF'
p3425
aS'/Library/Fonts/STIXGeneral.otf'
p3426
aS'/usr/X11R6/lib/X11/fonts/TTF/luxisb.ttf'
p3427
aS'/Library/Fonts/\xe3\x83\x92\xe3\x83\xa9\xe3\x82\xad\xe3\x82\x99\xe3\x83\x8e\xe8\xa7\x92\xe3\x82\xb3\xe3\x82\x99 Pro W3.otf'
p3428
aS'/Library/Fonts/Latin Modern/lmmonolt10-regular.otf'
p3429
aS'/Users/andrea/Library/Fonts/ARCfont.ttf'
p3430
aS'/Users/andrea/Library/Fonts/STIXIntUpDReg.otf'
p3431
aS'/Library/Fonts/GiddyupStd.otf'
p3432
aS'/Users/andrea/Library/Fonts/Lutin_Paniquangoisse.ttf'
p3433
aS'/Library/Fonts/Apple Chancery.ttf'
p3434
aS'/usr/X11R6/lib/X11/fonts/OTF/SyrCOMMardin.otf'
p3435
aS'/usr/X11/lib/X11/fonts/TTF/Vera.ttf'
p3436
aS'/Library/Fonts/ArnoPro-BoldItalicDisplay.otf'
p3437
aS'/Library/Fonts/STIXIntUpSmBol.otf'
p3438
aS'/Library/Fonts/MyriadHebrew-BoldIt.otf'
p3439
aS'/usr/X11R6/lib/X11/fonts/TTF/luxisr.ttf'
p3440
aS'/Library/Fonts/Latin Modern/lmmonolt10-boldoblique.otf'
p3441
aS'/Library/Fonts/STIXSizOneSymBol.otf'
p3442
aS'/Library/Fonts/Microsoft/Palatino Linotype.ttf'
p3443
aS'/Library/Fonts/AdobeHebrew-Regular.otf'
p3444
aS'/Library/Fonts/STIXSizTwoSymReg.otf'
p3445
aS'/Library/Fonts/ArnoPro-ItalicDisplay.otf'
p3446
aS'/Library/Fonts/NewPeninimMTBold.ttf'
p3447
aS'/Library/Fonts/Arial Bold.ttf'
p3448
aS'/Users/andrea/Library/Fonts/AWConquerorCarved-Three.otf'
p3449
aS'/Library/Fonts/Georgia Bold.ttf'
p3450
aS'/Users/andrea/Library/Fonts/Fontin_Sans_I_45b.otf'
p3451
aS'/Library/Fonts/TeX Gyre/texgyreadventor-italic.otf'
p3452
aS'/usr/X11/lib/X11/fonts/OTF/SyrCOMJerusalemItalic.otf'
p3453
aS'/Users/andrea/.fonts/LiberationSans_Bold.ttf'
p3454
aS'/Library/Fonts/Latin Modern/lmmonolt10-bold.otf'
p3455
aS'/Library/Fonts/TeX Gyre/texgyretermes-italic.otf'
p3456
aS'/Users/andrea/Library/Fonts/Delicious-Italic.otf'
p3457
aS'/Library/Fonts/GaramondPremrPro-It.otf'
p3458
aS'/Library/Fonts/STIXIntUpDReg.otf'
p3459
aS'/usr/X11R6/lib/X11/fonts/OTF/SyrCOMAntioch.otf'
p3460
aS'/usr/X11R6/lib/X11/fonts/TTF/luximri.ttf'
p3461
aS'/Library/Fonts/Latin Modern/lmromandunh10-oblique.otf'
p3462
aS'/Library/Fonts/ArnoPro-BoldSmText.otf'
p3463
aS'/Library/Fonts/Microsoft/Meiryo Bold Italic.ttf'
p3464
aS'/Library/Fonts/KozGoPro-Bold.otf'
p3465
aS'/Library/Fonts/Microsoft/Candara Italic.ttf'
p3466
aS'/Library/Fonts/KozGoPro-Medium.otf'
p3467
aS'/Library/Fonts/AppleSDGothicNeo-UltraLight.otf'
p3468
aS'/Users/andrea/Library/Fonts/courbd.ttf'
p3469
aS'/Library/Fonts/Latin Modern/lmsansdemicond10-oblique.otf'
p3470
aS'/Library/Fonts/Arial Unicode.ttf'
p3471
aS'/Users/andrea/Library/Fonts/Delicious-BoldItalic.otf'
p3472
aS'/Library/Fonts/AdobeHeitiStd-Regular.otf'
p3473
aS'/usr/X11R6/lib/X11/fonts/TTF/VeraMoBI.ttf'
p3474
aS'/Users/andrea/Library/Fonts/TradeGotConEig.otf'
p3475
aS'/Library/Fonts/TeX Gyre/texgyrecursor-italic.otf'
p3476
aS'/Users/andrea/Library/Fonts/pala.ttf'
p3477
aS'/Library/Fonts/Latin Modern/lmromanslant10-bold.otf'
p3478
aS'/Library/Fonts/AdobeDevanagari-Italic.otf'
p3479
aS'/Library/Fonts/AppleSDGothicNeo-Heavy.otf'
p3480
aS'/Users/andrea/Library/Fonts/Anonymous Pro.ttf'
p3481
aS'/Library/Fonts/MyriadHebrew-Regular.otf'
p3482
aS'/Library/Fonts/Latin Modern/lmromandemi10-regular.otf'
p3483
aS'/Library/Fonts/Microsoft/Times New Roman Bold.ttf'
p3484
aS'/Library/Fonts/Microsoft/Calibri Italic.ttf'
p3485
aS'/Library/Fonts/KozMinPr6N-Regular.otf'
p3486
aS'/Library/Fonts/TeX Gyre/texgyretermes-bolditalic.otf'
p3487
aS'/Library/Fonts/TeX Gyre/texgyreadventor-bold.otf'
p3488
aS'/Users/andrea/Library/Fonts/LektonItalic004.otf'
p3489
aS'/Users/andrea/Library/Fonts/Fontin-Regular.otf'
p3490
aS'/Users/andrea/Library/Fonts/Diavlo_BOOK_II_37.otf'
p3491
aS'/Library/Fonts/Microsoft/Candara.ttf'
p3492
aS'/Library/Fonts/ArnoPro-LightItalicDisplay.otf'
p3493
aS'/Users/andrea/Library/Fonts/AWConquerorCarved-One.otf'
p3494
aS'/usr/X11/lib/X11/fonts/OTF/SyrCOMJerusalemOutline.otf'
p3495
aS'/System/Library/Fonts/Thonburi.ttf'
p3496
aS'/Library/Fonts/ArnoPro-BoldCaption.otf'
p3497
aS'/Library/Fonts/STIXIntDBol.otf'
p3498
aS'/Users/andrea/Library/Fonts/duepuntozero.ttf'
p3499
aS'/Library/Fonts/ChaparralPro-Bold.otf'
p3500
aS'/Users/andrea/Library/Fonts/ERASDEMI.TTF'
p3501
aS'/Library/Fonts/TeX Gyre/texgyreheros-italic.otf'
p3502
aS'/Users/andrea/Library/Fonts/MonaKo.ttf'
p3503
aS'/Library/Fonts/Latin Modern/lmromanslant17-regular.otf'
p3504
aS'/Library/Fonts/Courier New.ttf'
p3505
aS'/Library/Fonts/Arial Narrow Bold Italic.ttf'
p3506
aS'/usr/X11/lib/X11/fonts/OTF/SyrCOMJerusalem.otf'
p3507
aS'/Library/Fonts/Zapfino.ttf'
p3508
aS'/Library/Fonts/Krungthep.ttf'
p3509
aS'/Library/Fonts/AppleSDGothicNeo-ExtraBold.otf'
p3510
aS'/Library/Fonts/Microsoft/Times New Roman Bold Italic.ttf'
p3511
aS'/usr/X11/lib/X11/fonts/TTF/VeraMoIt.ttf'
p3512
aS'/Library/Fonts/GaramondPremrPro-SmbdIt.otf'
p3513
aS'/Library/Fonts/MyriadHebrew-Bold.otf'
p3514
aS'/Users/andrea/Library/Fonts/AWConquerorDidot-Light.otf'
p3515
aS'/Library/Fonts/CooperBlackStd-Italic.otf'
p3516
aS'/Users/andrea/Library/Fonts/KLTNG___.TTF'
p3517
aS'/usr/X11/lib/X11/fonts/OTF/SyrCOMNisibinOutline.otf'
p3518
aS'/Library/Fonts/TeX Gyre/texgyrepagella-math.otf'
p3519
aS'/Library/Fonts/MinionPro-BoldCn.otf'
p3520
aS'/Users/andrea/Library/Fonts/EuropeUnderground_black.ttf'
p3521
aS'/System/Library/Fonts/\xe3\x83\x92\xe3\x83\xa9\xe3\x82\xad\xe3\x82\x99\xe3\x83\x8e\xe8\xa7\x92\xe3\x82\xb3\xe3\x82\x99 ProN W3.otf'
p3522
aS'/Library/Fonts/\xe5\x8d\x8e\xe6\x96\x87\xe9\xbb\x91\xe4\xbd\x93.ttf'
p3523
aS'/usr/X11/lib/X11/fonts/OTF/SyrCOMMidyat.otf'
p3524
aS'/System/Library/Fonts/Apple Braille Outline 8 Dot.ttf'
p3525
aS'/Library/Fonts/KozMinPro-Light.otf'
p3526
aS'/usr/X11/lib/X11/fonts/OTF/SyrCOMQenNeshrin.otf'
p3527
aS'/Library/Fonts/BickhamScriptPro-Semibold.otf'
p3528
aS'/Library/Fonts/Latin Modern/lmroman12-bold.otf'
p3529
aS'/Library/Fonts/TeX Gyre/texgyrecursor-regular.otf'
p3530
aS'/Users/andrea/Library/Fonts/TradeGotLig.otf'
p3531
aS'/Library/Fonts/Times New Roman Bold.ttf'
p3532
aS'/Users/andrea/Library/Fonts/Menlo-Powerline-2.otf'
p3533
aS'/Library/Fonts/Microsoft/Corbel Italic.ttf'
p3534
aS'/usr/X11/lib/X11/fonts/TTF/GohaTibebZemen.ttf'
p3535
aS'/Library/Fonts/TeX Gyre/texgyretermes-regular.otf'
p3536
aS'/Library/Fonts/Microsoft/Palatino Linotype Bold.ttf'
p3537
aS'/Library/Fonts/AGaramondPro-Italic.otf'
p3538
aS'/Library/Fonts/STIXVarBol.otf'
p3539
aS'/Library/Fonts/\xe3\x83\x92\xe3\x83\xa9\xe3\x82\xad\xe3\x82\x99\xe3\x83\x8e\xe8\xa7\x92\xe3\x82\xb3\xe3\x82\x99 StdN W8.otf'
p3540
aS'/Library/Fonts/Microsoft/MS Gothic.ttf'
p3541
aS'/Library/Fonts/Microsoft/MS PMincho.ttf'
p3542
aS'/Library/Fonts/STIXIntUpBol.otf'
p3543
aS'/Library/Fonts/Microsoft/MS Reference Sans Serif.ttf'
p3544
aS'/Library/Fonts/STIXSizTwoSymBol.otf'
p3545
aS'/Library/Fonts/\xe3\x83\x92\xe3\x83\xa9\xe3\x82\xad\xe3\x82\x99\xe3\x83\x8e\xe6\x98\x8e\xe6\x9c\x9d Pro W3.otf'
p3546
aS'/Library/Fonts/Microsoft/Corbel.ttf'
p3547
aS'/Users/andrea/Library/Fonts/TradeGotBolTwo.otf'
p3548
aS'/Library/Fonts/ACaslonPro-Semibold.otf'
p3549
aS'/Library/Fonts/EccentricStd.otf'
p3550
aS'/Library/Fonts/TeX Gyre/texgyrecursor-bold.otf'
p3551
aS'/Library/Fonts/Latin Modern/lmroman9-regular.otf'
p3552
aS'/Library/Fonts/Latin Modern/lmroman8-regular.otf'
p3553
aS'/usr/X11R6/lib/X11/fonts/TTF/VeraIt.ttf'
p3554
aS'/usr/X11/lib/X11/fonts/OTF/GohaTibebZemen.otf'
p3555
aS'/Users/andrea/Library/Fonts/BRLNSR.TTF'
p3556
aS'/Library/Fonts/Microsoft/SimSun.ttf'
p3557
aS'/Users/andrea/Library/Fonts/Vagroln.ttf'
p3558
aS'/System/Library/Fonts/Apple Braille Pinpoint 8 Dot.ttf'
p3559
aS'/Library/Fonts/MinionPro-Medium.otf'
p3560
aS'/usr/X11R6/lib/X11/fonts/OTF/SyrCOMNisibinOutline.otf'
p3561
aS'/System/Library/Fonts/Apple Braille Outline 6 Dot.ttf'
p3562
aS'/Library/Fonts/AdobeHebrew-Bold.otf'
p3563
aS'/Library/Fonts/Microsoft/Gill Sans MT Bold Italic.ttf'
p3564
aS'/Library/Fonts/RaananaBold.ttf'
p3565
aS'/usr/X11/lib/X11/fonts/OTF/SyrCOMKharput.otf'
p3566
aS'/Users/andrea/Library/Fonts/Ned.ttf'
p3567
aS'/Library/Fonts/AGaramondPro-Regular.otf'
p3568
aS'/Library/Fonts/ArnoPro-BoldItalicSubhead.otf'
p3569
aS'/Library/Fonts/MyriadArabic-Bold.otf'
p3570
aS'/usr/X11/lib/X11/fonts/TTF/luxirri.ttf'
p3571
aS'/Library/Fonts/ChaparralPro-Regular.otf'
p3572
aS'/System/Library/Fonts/LastResort.ttf'
p3573
aS'/Library/Fonts/Latin Modern/lmroman12-regular.otf'
p3574
aS'/Library/Fonts/\xe9\x9b\x85\xe7\x97\x9e-\xe7\xb9\x81.otf'
p3575
aS'/Users/andrea/Library/Fonts/Fontin-Italic.otf'
p3576
aS'/Library/Fonts/AppleSDGothicNeo-Thin.otf'
p3577
aS'/Library/Fonts/ArnoPro-SmbdCaption.otf'
p3578
aS'/System/Library/Fonts/Geeza Pro Bold.ttf'
p3579
aS'/Library/Fonts/STIXGeneralBol.otf'
p3580
aS'/Users/andrea/Library/Fonts/GenAI102.TTF'
p3581
aS'/usr/X11R6/lib/X11/fonts/OTF/SyrCOMAdiabene.otf'
p3582
aS'/usr/X11R6/lib/X11/fonts/OTF/SyrCOMQenNeshrin.otf'
p3583
aS'/Library/Fonts/ACaslonPro-Bold.otf'
p3584
aS'/Users/andrea/Library/Fonts/punched_out.ttf'
p3585
aS'/Users/andrea/Library/Fonts/Dekar Light.otf'
p3586
aS'/Library/Fonts/Microsoft/Franklin Gothic Book.ttf'
p3587
aS'/Library/Fonts/OsakaMono.ttf'
p3588
aS'/Library/Fonts/KozMinPr6N-ExtraLight.otf'
p3589
aS'/Library/Fonts/STIXGeneralBolIta.otf'
p3590
aS'/Library/Fonts/Trebuchet MS.ttf'
p3591
aS'/Library/Fonts/Latin Modern/lmromanslant9-regular.otf'
p3592
aS'/Users/andrea/Library/Fonts/Lekton034.otf'
p3593
aS'/usr/X11/lib/X11/fonts/TTF/VeraBI.ttf'
p3594
aS'/Library/Fonts/Courier New Bold.ttf'
p3595
aS'/Users/andrea/Library/Fonts/Menlo-Powerline.otf'
p3596
aS'/Users/andrea/Library/Fonts/STIXIntUpSmBol.otf'
p3597
aS'/Library/Fonts/Latin Modern/lmmono10-italic.otf'
p3598
aS'/Library/Fonts/Microsoft/Perpetua Bold.ttf'
p3599
aS'/Library/Fonts/AdobeFangsongStd-Regular.otf'
p3600
aS'/Library/Fonts/Herculanum.ttf'
p3601
aS'/Library/Fonts/Microsoft/Wingdings.ttf'
p3602
aS'/Library/Fonts/TeX Gyre/texgyreadventor-bolditalic.otf'
p3603
aS'/Library/Fonts/Latin Modern/lmsansquot8-regular.otf'
p3604
aS'/Library/Fonts/MinionPro-SemiboldIt.otf'
p3605
aS'/Library/Fonts/AdobeDevanagari-Regular.otf'
p3606
aS'/usr/X11/lib/X11/fonts/OTF/SyrCOMTurAbdin.otf'
p3607
aS'/Library/Fonts/Wingdings 2.ttf'
p3608
aS'/Library/Fonts/LithosPro-Black.otf'
p3609
aS'/Library/Fonts/Tahoma.ttf'
p3610
aS'/Library/Fonts/Brush Script.ttf'
p3611
aS'/usr/X11R6/lib/X11/fonts/OTF/SyrCOMJerusalemOutline.otf'
p3612
aS'/Library/Fonts/Microsoft/Gill Sans MT Bold.ttf'
p3613
aS'/Library/Fonts/\xe3\x83\x92\xe3\x83\xa9\xe3\x82\xad\xe3\x82\x99\xe3\x83\x8e\xe4\xb8\xb8\xe3\x82\xb3\xe3\x82\x99 ProN W4.otf'
p3614
aS'/Library/Fonts/TeX Gyre/texgyrecursor-bolditalic.otf'
p3615
aS'/Library/Fonts/Microsoft/Palatino Linotype Italic.ttf'
p3616
aS'/Library/Fonts/STIXSizOneSymReg.otf'
p3617
aS'/Library/Fonts/OratorStd-Slanted.otf'
p3618
aS'/Library/Fonts/MyriadHebrew-It.otf'
p3619
aS'/usr/X11R6/lib/X11/fonts/TTF/luximr.ttf'
p3620
aS'/Library/Fonts/Microsoft/Wingdings 2.ttf'
p3621
aS'/Library/Fonts/Microsoft/MS Mincho.ttf'
p3622
aS'/Library/Fonts/Latin Modern/lmsans9-regular.otf'
p3623
aS'/usr/X11R6/lib/X11/fonts/OTF/SyrCOMUrhoyBold.otf'
p3624
aS'/Library/Fonts/TeX Gyre/texgyreheroscn-regular.otf'
p3625
aS'/Users/andrea/Library/Fonts/Diavlo_LIGHT_II_37.otf'
p3626
aS'/Library/Fonts/\xe5\x8d\x8e\xe6\x96\x87\xe7\xbb\x86\xe9\xbb\x91.ttf'
p3627
aS'/Users/andrea/Library/Fonts/TradeGotLHExt.otf'
p3628
aS'/usr/X11R6/lib/X11/fonts/TTF/luximb.ttf'
p3629
aS'/Library/Fonts/Latin Modern/lmroman7-bold.otf'
p3630
aS'/Library/Fonts/Microsoft/Meiryo Italic.ttf'
p3631
aS'/Users/andrea/Library/Fonts/Delicious-SmallCaps.otf'
p3632
aS'/Library/Fonts/KozMinPro-ExtraLight.otf'
p3633
aS'/Library/Fonts/Latin Modern/lmromancaps10-oblique.otf'
p3634
aS'/Library/Fonts/Latin Modern/lmsans8-regular.otf'
p3635
aS'/System/Library/Fonts/Apple Symbols.ttf'
p3636
aS'/Library/Fonts/HoboStd.otf'
p3637
aS'/usr/X11R6/lib/X11/fonts/TTF/VeraSe.ttf'
p3638
aS'/Library/Fonts/KozMinPr6N-Medium.otf'
p3639
aS'/Library/Fonts/Apple LiGothic Medium.ttf'
p3640
aS'/Users/andrea/.fonts/LiberationSerif_Italic.ttf'
p3641
aS'/Library/Fonts/Microsoft/Calibri.ttf'
p3642
aS'/Users/andrea/Library/Fonts/Diavlo_MEDIUM_II_37.otf'
p3643
aS'/Library/Fonts/NuevaStd-Bold.otf'
p3644
aS'/Library/Fonts/DevanagariMT.ttf'
p3645
aS'/Library/Fonts/STIXIntDReg.otf'
p3646
aS'/Library/Fonts/Gungseouche.ttf'
p3647
aS'/Library/Fonts/Latin Modern/lmmono9-regular.otf'
p3648
aS'/Users/andrea/Library/Fonts/Diavlo_BLACK_II_37.otf'
p3649
aS'/Library/Fonts/Latin Modern/lmmonoltcond10-regular.otf'
p3650
aS'/usr/X11/lib/X11/fonts/TTF/luxisbi.ttf'
p3651
aS'/Library/Fonts/TeX Gyre/texgyreheros-bold.otf'
p3652
aS'/Library/Fonts/KozGoPro-Regular.otf'
p3653
aS'/Library/Fonts/Sathu.ttf'
p3654
aS'/Library/Fonts/Comic Sans MS.ttf'
p3655
aS'/Library/Fonts/GujaratiMT.ttf'
p3656
aS'/Library/Fonts/AppleSDGothicNeo-Medium.otf'
p3657
asS'_FontManager__default_weight'
p3658
g13
sS'_version'
p3659
I101
sS'ttf_lookup_cache'
p3660
(dp3661
sS'default_size'
p3662
NsS'defaultFont'
p3663
(dp3664
g2856
S'/usr/local/lib/python2.7/site-packages/matplotlib/mpl-data/fonts/pdfcorefonts/Helvetica-Bold.afm'
p3665
sg2858
g2884
ssS'afmfiles'
p3666
(lp3667
g3665
aS'/usr/local/lib/python2.7/site-packages/matplotlib/mpl-data/fonts/pdfcorefonts/Courier-Oblique.afm'
p3668
aS'/usr/local/lib/python2.7/site-packages/matplotlib/mpl-data/fonts/afm/phvb8a.afm'
p3669
aS'/usr/local/lib/python2.7/site-packages/matplotlib/mpl-data/fonts/pdfcorefonts/Times-Bold.afm'
p3670
aS'/usr/local/lib/python2.7/site-packages/matplotlib/mpl-data/fonts/afm/pbkli8a.afm'
p3671
aS'/usr/local/lib/python2.7/site-packages/matplotlib/mpl-data/fonts/pdfcorefonts/Courier-BoldOblique.afm'
p3672
aS'/usr/local/lib/python2.7/site-packages/matplotlib/mpl-data/fonts/afm/phvr8an.afm'
p3673
aS'/usr/local/lib/python2.7/site-packages/matplotlib/mpl-data/fonts/pdfcorefonts/Courier.afm'
p3674
aS'/usr/local/lib/python2.7/site-packages/matplotlib/mpl-data/fonts/afm/ptmri8a.afm'
p3675
aS'/usr/local/lib/python2.7/site-packages/matplotlib/mpl-data/fonts/afm/cmex10.afm'
p3676
aS'/usr/local/lib/python2.7/site-packages/matplotlib/mpl-data/fonts/afm/pzdr.afm'
p3677
aS'/usr/local/lib/python2.7/site-packages/matplotlib/mpl-data/fonts/afm/phvr8a.afm'
p3678
aS'/usr/local/lib/python2.7/site-packages/matplotlib/mpl-data/fonts/afm/pncbi8a.afm'
p3679
aS'/usr/local/lib/python2.7/site-packages/matplotlib/mpl-data/fonts/afm/phvbo8an.afm'
p3680
aS'/usr/local/lib/python2.7/site-packages/matplotlib/mpl-data/fonts/afm/pagd8a.afm'
p3681
aS'/usr/local/lib/python2.7/site-packages/matplotlib/mpl-data/fonts/afm/pplbi8a.afm'
p3682
aS'/usr/local/lib/python2.7/site-packages/matplotlib/mpl-data/fonts/afm/cmtt10.afm'
p3683
aS'/usr/local/lib/python2.7/site-packages/matplotlib/mpl-data/fonts/afm/putri8a.afm'
p3684
aS'/usr/local/lib/python2.7/site-packages/matplotlib/mpl-data/fonts/afm/pplr8a.afm'
p3685
aS'/usr/local/lib/python2.7/site-packages/matplotlib/mpl-data/fonts/afm/cmsy10.afm'
p3686
aS'/usr/local/lib/python2.7/site-packages/matplotlib/mpl-data/fonts/afm/putb8a.afm'
p3687
aS'/usr/local/lib/python2.7/site-packages/matplotlib/mpl-data/fonts/pdfcorefonts/Helvetica.afm'
p3688
aS'/usr/local/lib/python2.7/site-packages/matplotlib/mpl-data/fonts/afm/pplb8a.afm'
p3689
aS'/usr/local/lib/python2.7/site-packages/matplotlib/mpl-data/fonts/afm/phvb8an.afm'
p3690
aS'/usr/local/lib/python2.7/site-packages/matplotlib/mpl-data/fonts/afm/putr8a.afm'
p3691
aS'/usr/local/lib/python2.7/site-packages/matplotlib/mpl-data/fonts/afm/phvro8a.afm'
p3692
aS'/usr/local/lib/python2.7/site-packages/matplotlib/mpl-data/fonts/pdfcorefonts/Helvetica-BoldOblique.afm'
p3693
aS'/usr/local/lib/python2.7/site-packages/matplotlib/mpl-data/fonts/pdfcorefonts/Symbol.afm'
p3694
aS'/usr/local/lib/python2.7/site-packages/matplotlib/mpl-data/fonts/afm/pplri8a.afm'
p3695
aS'/usr/local/lib/python2.7/site-packages/matplotlib/mpl-data/fonts/pdfcorefonts/Times-Italic.afm'
p3696
aS'/usr/local/lib/python2.7/site-packages/matplotlib/mpl-data/fonts/afm/ptmb8a.afm'
p3697
aS'/usr/local/lib/python2.7/site-packages/matplotlib/mpl-data/fonts/afm/ptmr8a.afm'
p3698
aS'/usr/local/lib/python2.7/site-packages/matplotlib/mpl-data/fonts/afm/phvl8a.afm'
p3699
aS'/usr/local/lib/python2.7/site-packages/matplotlib/mpl-data/fonts/afm/putbi8a.afm'
p3700
aS'/usr/local/lib/python2.7/site-packages/matplotlib/mpl-data/fonts/afm/pncri8a.afm'
p3701
aS'/usr/local/lib/python2.7/site-packages/matplotlib/mpl-data/fonts/afm/cmr10.afm'
p3702
aS'/usr/local/lib/python2.7/site-packages/matplotlib/mpl-data/fonts/afm/pbkl8a.afm'
p3703
aS'/usr/local/lib/python2.7/site-packages/matplotlib/mpl-data/fonts/pdfcorefonts/Helvetica-Oblique.afm'
p3704
aS'/usr/local/lib/python2.7/site-packages/matplotlib/mpl-data/fonts/pdfcorefonts/Times-BoldItalic.afm'
p3705
aS'/usr/local/lib/python2.7/site-packages/matplotlib/mpl-data/fonts/afm/phvlo8a.afm'
p3706
aS'/usr/local/lib/python2.7/site-packages/matplotlib/mpl-data/fonts/afm/pcrbo8a.afm'
p3707
aS'/usr/local/lib/python2.7/site-packages/matplotlib/mpl-data/fonts/pdfcorefonts/Courier-Bold.afm'
p3708
aS'/usr/local/lib/python2.7/site-packages/matplotlib/mpl-data/fonts/afm/phvro8an.afm'
p3709
aS'/usr/local/lib/python2.7/site-packages/matplotlib/mpl-data/fonts/afm/ptmbi8a.afm'
p3710
aS'/usr/local/lib/python2.7/site-packages/matplotlib/mpl-data/fonts/afm/pcrb8a.afm'
p3711
aS'/usr/local/lib/python2.7/site-packages/matplotlib/mpl-data/fonts/afm/phvbo8a.afm'
p3712
aS'/usr/local/lib/python2.7/site-packages/matplotlib/mpl-data/fonts/afm/pncr8a.afm'
p3713
aS'/usr/local/lib/python2.7/site-packages/matplotlib/mpl-data/fonts/afm/psyr.afm'
p3714
aS'/usr/local/lib/python2.7/site-packages/matplotlib/mpl-data/fonts/afm/pcrro8a.afm'
p3715
aS'/usr/local/lib/python2.7/site-packages/matplotlib/mpl-data/fonts/pdfcorefonts/ZapfDingbats.afm'
p3716
aS'/usr/local/lib/python2.7/site-packages/matplotlib/mpl-data/fonts/afm/cmmi10.afm'
p3717
aS'/usr/local/lib/python2.7/site-packages/matplotlib/mpl-data/fonts/afm/pcrr8a.afm'
p3718
aS'/usr/local/lib/python2.7/site-packages/matplotlib/mpl-data/fonts/afm/pncb8a.afm'
p3719
aS'/usr/local/lib/python2.7/site-packages/matplotlib/mpl-data/fonts/afm/pbkd8a.afm'
p3720
aS'/usr/local/lib/python2.7/site-packages/matplotlib/mpl-data/fonts/afm/pzcmi8a.afm'
p3721
aS'/usr/local/lib/python2.7/site-packages/matplotlib/mpl-data/fonts/afm/pagko8a.afm'
p3722
aS'/usr/local/lib/python2.7/site-packages/matplotlib/mpl-data/fonts/pdfcorefonts/Times-Roman.afm'
p3723
aS'/usr/local/lib/python2.7/site-packages/matplotlib/mpl-data/fonts/afm/pagk8a.afm'
p3724
aS'/usr/local/lib/python2.7/site-packages/matplotlib/mpl-data/fonts/afm/pagdo8a.afm'
p3725
aS'/usr/local/lib/python2.7/site-packages/matplotlib/mpl-data/fonts/afm/pbkdi8a.afm'
p3726
aS'/usr/X11/lib/X11/fonts/Type1/UTB_____.afm'
p3727
aS'/usr/X11/lib/X11/fonts/Type1/c0583bt_.afm'
p3728
aS'/usr/X11/lib/X11/fonts/Type1/l049036t.afm'
p3729
aS'/usr/X11/lib/X11/fonts/Type1/c0649bt_.afm'
p3730
aS'/usr/X11/lib/X11/fonts/Type1/UTRG____.afm'
p3731
aS'/usr/X11/lib/X11/fonts/Type1/c0582bt_.afm'
p3732
aS'/usr/X11/lib/X11/fonts/Type1/c0648bt_.afm'
p3733
aS'/usr/X11/lib/X11/fonts/Type1/c0633bt_.afm'
p3734
aS'/usr/X11/lib/X11/fonts/Type1/l048013t.afm'
p3735
aS'/usr/X11/lib/X11/fonts/Type1/courb.afm'
p3736
aS'/usr/X11/lib/X11/fonts/Type1/c0419bt_.afm'
p3737
aS'/usr/X11/lib/X11/fonts/Type1/UTI_____.afm'
p3738
aS'/usr/X11/lib/X11/fonts/Type1/l049016t.afm'
p3739
aS'/usr/X11/lib/X11/fonts/Type1/l048033t.afm'
p3740
aS'/usr/X11/lib/X11/fonts/Type1/l048016t.afm'
p3741
aS'/usr/X11/lib/X11/fonts/Type1/l048036t.afm'
p3742
aS'/usr/X11/lib/X11/fonts/Type1/courbi.afm'
p3743
aS'/usr/X11/lib/X11/fonts/Type1/c0632bt_.afm'
p3744
aS'/usr/X11/lib/X11/fonts/Type1/l049013t.afm'
p3745
aS'/usr/X11/lib/X11/fonts/Type1/c0611bt_.afm'
p3746
aS'/usr/X11/lib/X11/fonts/Type1/l047036t.afm'
p3747
aS'/usr/X11/lib/X11/fonts/Type1/l047016t.afm'
p3748
aS'/usr/X11/lib/X11/fonts/Type1/l047033t.afm'
p3749
aS'/usr/X11/lib/X11/fonts/Type1/l047013t.afm'
p3750
aS'/usr/X11/lib/X11/fonts/Type1/l049033t.afm'
p3751
aS'/usr/X11/lib/X11/fonts/Type1/UTBI____.afm'
p3752
aS'/usr/X11/lib/X11/fonts/Type1/cour.afm'
p3753
aS'/usr/X11/lib/X11/fonts/Type1/couri.afm'
p3754
asS'afmlist'
p3755
(lp3756
g7
(g8
g9
NtRp3757
(dp3758
g12
g13
sg14
S'Helvetica'
p3759
sg16
I700
sg17
g13
sg18
g13
sg19
g3665
sg21
g22
sbag7
(g8
g9
NtRp3760
(dp3761
g12
g41
sg14
S'Courier'
p3762
sg16
I500
sg17
g13
sg18
g13
sg19
g3668
sg21
g22
sbag7
(g8
g9
NtRp3763
(dp3764
g12
g13
sg14
S'Helvetica'
p3765
sg16
I700
sg17
g13
sg18
g13
sg19
g3669
sg21
g22
sbag7
(g8
g9
NtRp3766
(dp3767
g12
g13
sg14
S'Times'
p3768
sg16
I700
sg17
g13
sg18
g13
sg19
g3670
sg21
g22
sbag7
(g8
g9
NtRp3769
(dp3770
g12
g41
sg14
S'ITC Bookman'
p3771
sg16
I200
sg17
g13
sg18
g13
sg19
g3671
sg21
g22
sbag7
(g8
g9
NtRp3772
(dp3773
g12
g41
sg14
S'Courier'
p3774
sg16
I700
sg17
g13
sg18
g13
sg19
g3672
sg21
g22
sbag7
(g8
g9
NtRp3775
(dp3776
g12
g13
sg14
S'Helvetica'
p3777
sg16
I500
sg17
g172
sg18
g13
sg19
g3673
sg21
g22
sbag7
(g8
g9
NtRp3778
(dp3779
g12
g13
sg14
S'Courier'
p3780
sg16
I500
sg17
g13
sg18
g13
sg19
g3674
sg21
g22
sbag7
(g8
g9
NtRp3781
(dp3782
g12
g41
sg14
S'Times'
p3783
sg16
I500
sg17
g13
sg18
g13
sg19
g3675
sg21
g22
sbag7
(g8
g9
NtRp3784
(dp3785
g12
g13
sg14
S'Computer Modern'
p3786
sg16
I500
sg17
g13
sg18
g13
sg19
g3676
sg21
g22
sbag7
(g8
g9
NtRp3787
(dp3788
g12
g13
sg14
S'ITC Zapf Dingbats'
p3789
sg16
I500
sg17
g13
sg18
g13
sg19
g3677
sg21
g22
sbag7
(g8
g9
NtRp3790
(dp3791
g12
g13
sg14
S'Helvetica'
p3792
sg16
I500
sg17
g13
sg18
g13
sg19
g3678
sg21
g22
sbag7
(g8
g9
NtRp3793
(dp3794
g12
g41
sg14
S'New Century Schoolbook'
p3795
sg16
I700
sg17
g13
sg18
g13
sg19
g3679
sg21
g22
sbag7
(g8
g9
NtRp3796
(dp3797
g12
g41
sg14
S'Helvetica'
p3798
sg16
I700
sg17
g172
sg18
g13
sg19
g3680
sg21
g22
sbag7
(g8
g9
NtRp3799
(dp3800
g12
g13
sg14
S'ITC Avant Garde Gothic'
p3801
sg16
I600
sg17
g13
sg18
g13
sg19
g3681
sg21
g22
sbag7
(g8
g9
NtRp3802
(dp3803
g12
g41
sg14
S'Palatino'
p3804
sg16
I700
sg17
g13
sg18
g13
sg19
g3682
sg21
g22
sbag7
(g8
g9
NtRp3805
(dp3806
g12
g13
sg14
S'Computer Modern'
p3807
sg16
I500
sg17
g13
sg18
g13
sg19
g3683
sg21
g22
sbag7
(g8
g9
NtRp3808
(dp3809
g12
g41
sg14
S'Utopia'
p3810
sg16
I400
sg17
g13
sg18
g13
sg19
g3684
sg21
g22
sbag7
(g8
g9
NtRp3811
(dp3812
g12
g13
sg14
S'Palatino'
p3813
sg16
I500
sg17
g13
sg18
g13
sg19
g3685
sg21
g22
sbag7
(g8
g9
NtRp3814
(dp3815
g12
g41
sg14
S'Computer Modern'
p3816
sg16
I500
sg17
g13
sg18
g13
sg19
g3686
sg21
g22
sbag7
(g8
g9
NtRp3817
(dp3818
g12
g13
sg14
S'Utopia'
p3819
sg16
I700
sg17
g13
sg18
g13
sg19
g3687
sg21
g22
sbag7
(g8
g9
NtRp3820
(dp3821
g12
g13
sg14
S'Helvetica'
p3822
sg16
I500
sg17
g13
sg18
g13
sg19
g3688
sg21
g22
sbag7
(g8
g9
NtRp3823
(dp3824
g12
g13
sg14
S'Palatino'
p3825
sg16
I700
sg17
g13
sg18
g13
sg19
g3689
sg21
g22
sbag7
(g8
g9
NtRp3826
(dp3827
g12
g13
sg14
S'Helvetica'
p3828
sg16
I700
sg17
g172
sg18
g13
sg19
g3690
sg21
g22
sbag7
(g8
g9
NtRp3829
(dp3830
g12
g13
sg14
S'Utopia'
p3831
sg16
I400
sg17
g13
sg18
g13
sg19
g3691
sg21
g22
sbag7
(g8
g9
NtRp3832
(dp3833
g12
g41
sg14
S'Helvetica'
p3834
sg16
I500
sg17
g13
sg18
g13
sg19
g3692
sg21
g22
sbag7
(g8
g9
NtRp3835
(dp3836
g12
g41
sg14
S'Helvetica'
p3837
sg16
I700
sg17
g13
sg18
g13
sg19
g3693
sg21
g22
sbag7
(g8
g9
NtRp3838
(dp3839
g12
g13
sg14
S'Symbol'
p3840
sg16
I500
sg17
g13
sg18
g13
sg19
g3694
sg21
g22
sbag7
(g8
g9
NtRp3841
(dp3842
g12
g41
sg14
S'Palatino'
p3843
sg16
I500
sg17
g13
sg18
g13
sg19
g3695
sg21
g22
sbag7
(g8
g9
NtRp3844
(dp3845
g12
g41
sg14
S'Times'
p3846
sg16
I500
sg17
g13
sg18
g13
sg19
g3696
sg21
g22
sbag7
(g8
g9
NtRp3847
(dp3848
g12
g13
sg14
S'Times'
p3849
sg16
I700
sg17
g13
sg18
g13
sg19
g3697
sg21
g22
sbag7
(g8
g9
NtRp3850
(dp3851
g12
g13
sg14
S'Times'
p3852
sg16
I500
sg17
g13
sg18
g13
sg19
g3698
sg21
g22
sbag7
(g8
g9
NtRp3853
(dp3854
g12
g13
sg14
S'Helvetica'
p3855
sg16
I200
sg17
g13
sg18
g13
sg19
g3699
sg21
g22
sbag7
(g8
g9
NtRp3856
(dp3857
g12
g41
sg14
S'Utopia'
p3858
sg16
I700
sg17
g13
sg18
g13
sg19
g3700
sg21
g22
sbag7
(g8
g9
NtRp3859
(dp3860
g12
g41
sg14
S'New Century Schoolbook'
p3861
sg16
I500
sg17
g13
sg18
g13
sg19
g3701
sg21
g22
sbag7
(g8
g9
NtRp3862
(dp3863
g12
g13
sg14
S'Computer Modern'
p3864
sg16
I500
sg17
g13
sg18
g13
sg19
g3702
sg21
g22
sbag7
(g8
g9
NtRp3865
(dp3866
g12
g13
sg14
S'ITC Bookman'
p3867
sg16
I200
sg17
g13
sg18
g13
sg19
g3703
sg21
g22
sbag7
(g8
g9
NtRp3868
(dp3869
g12
g41
sg14
S'Helvetica'
p3870
sg16
I500
sg17
g13
sg18
g13
sg19
g3704
sg21
g22
sbag7
(g8
g9
NtRp3871
(dp3872
g12
g41
sg14
S'Times'
p3873
sg16
I700
sg17
g13
sg18
g13
sg19
g3705
sg21
g22
sbag7
(g8
g9
NtRp3874
(dp3875
g12
g41
sg14
S'Helvetica'
p3876
sg16
I200
sg17
g13
sg18
g13
sg19
g3706
sg21
g22
sbag7
(g8
g9
NtRp3877
(dp3878
g12
g41
sg14
S'Courier'
p3879
sg16
I700
sg17
g13
sg18
g13
sg19
g3707
sg21
g22
sbag7
(g8
g9
NtRp3880
(dp3881
g12
g13
sg14
S'Courier'
p3882
sg16
I700
sg17
g13
sg18
g13
sg19
g3708
sg21
g22
sbag7
(g8
g9
NtRp3883
(dp3884
g12
g41
sg14
S'Helvetica'
p3885
sg16
I500
sg17
g172
sg18
g13
sg19
g3709
sg21
g22
sbag7
(g8
g9
NtRp3886
(dp3887
g12
g41
sg14
S'Times'
p3888
sg16
I700
sg17
g13
sg18
g13
sg19
g3710
sg21
g22
sbag7
(g8
g9
NtRp3889
(dp3890
g12
g13
sg14
S'Courier'
p3891
sg16
I700
sg17
g13
sg18
g13
sg19
g3711
sg21
g22
sbag7
(g8
g9
NtRp3892
(dp3893
g12
g41
sg14
S'Helvetica'
p3894
sg16
I700
sg17
g13
sg18
g13
sg19
g3712
sg21
g22
sbag7
(g8
g9
NtRp3895
(dp3896
g12
g13
sg14
S'New Century Schoolbook'
p3897
sg16
I500
sg17
g13
sg18
g13
sg19
g3713
sg21
g22
sbag7
(g8
g9
NtRp3898
(dp3899
g12
g13
sg14
S'Symbol'
p3900
sg16
I500
sg17
g13
sg18
g13
sg19
g3714
sg21
g22
sbag7
(g8
g9
NtRp3901
(dp3902
g12
g41
sg14
S'Courier'
p3903
sg16
I500
sg17
g13
sg18
g13
sg19
g3715
sg21
g22
sbag7
(g8
g9
NtRp3904
(dp3905
g12
g13
sg14
S'ZapfDingbats'
p3906
sg16
I500
sg17
g13
sg18
g13
sg19
g3716
sg21
g22
sbag7
(g8
g9
NtRp3907
(dp3908
g12
g41
sg14
S'Computer Modern'
p3909
sg16
I500
sg17
g13
sg18
g13
sg19
g3717
sg21
g22
sbag7
(g8
g9
NtRp3910
(dp3911
g12
g13
sg14
S'Courier'
p3912
sg16
I500
sg17
g13
sg18
g13
sg19
g3718
sg21
g22
sbag7
(g8
g9
NtRp3913
(dp3914
g12
g13
sg14
S'New Century Schoolbook'
p3915
sg16
I700
sg17
g13
sg18
g13
sg19
g3719
sg21
g22
sbag7
(g8
g9
NtRp3916
(dp3917
g12
g13
sg14
S'ITC Bookman'
p3918
sg16
I600
sg17
g13
sg18
g13
sg19
g3720
sg21
g22
sbag7
(g8
g9
NtRp3919
(dp3920
g12
g41
sg14
S'ITC Zapf Chancery'
p3921
sg16
I500
sg17
g13
sg18
g13
sg19
g3721
sg21
g22
sbag7
(g8
g9
NtRp3922
(dp3923
g12
g41
sg14
S'ITC Avant Garde Gothic'
p3924
sg16
I400
sg17
g13
sg18
g13
sg19
g3722
sg21
g22
sbag7
(g8
g9
NtRp3925
(dp3926
g12
g13
sg14
S'Times'
p3927
sg16
I500
sg17
g13
sg18
g13
sg19
g3723
sg21
g22
sbag7
(g8
g9
NtRp3928
(dp3929
g12
g13
sg14
S'ITC Avant Garde Gothic'
p3930
sg16
I400
sg17
g13
sg18
g13
sg19
g3724
sg21
g22
sbag7
(g8
g9
NtRp3931
(dp3932
g12
g41
sg14
S'ITC Avant Garde Gothic'
p3933
sg16
I600
sg17
g13
sg18
g13
sg19
g3725
sg21
g22
sbag7
(g8
g9
NtRp3934
(dp3935
g12
g41
sg14
S'ITC Bookman'
p3936
sg16
I600
sg17
g13
sg18
g13
sg19
g3726
sg21
g22
sbag7
(g8
g9
NtRp3937
(dp3938
g12
g13
sg14
S'Utopia'
p3939
sg16
I700
sg17
g13
sg18
g13
sg19
g3727
sg21
g22
sbag7
(g8
g9
NtRp3940
(dp3941
g12
g13
sg14
S'Courier 10 Pitch'
p3942
sg16
I700
sg17
g13
sg18
g13
sg19
g3728
sg21
g22
sbag7
(g8
g9
NtRp3943
(dp3944
g12
g41
sg14
S'Luxi Serif'
p3945
sg16
I700
sg17
g13
sg18
g13
sg19
g3729
sg21
g22
sbag7
(g8
g9
NtRp3946
(dp3947
g12
g41
sg14
S'Bitstream Charter'
p3948
sg16
I400
sg17
g13
sg18
g13
sg19
g3730
sg21
g22
sbag7
(g8
g9
NtRp3949
(dp3950
g12
g13
sg14
S'Utopia'
p3951
sg16
I400
sg17
g13
sg18
g13
sg19
g3731
sg21
g22
sbag7
(g8
g9
NtRp3952
(dp3953
g12
g41
sg14
S'Courier 10 Pitch'
p3954
sg16
I400
sg17
g13
sg18
g13
sg19
g3732
sg21
g22
sbag7
(g8
g9
NtRp3955
(dp3956
g12
g13
sg14
S'Bitstream Charter'
p3957
sg16
I400
sg17
g13
sg18
g13
sg19
g3733
sg21
g22
sbag7
(g8
g9
NtRp3958
(dp3959
g12
g41
sg14
S'Bitstream Charter'
p3960
sg16
I700
sg17
g13
sg18
g13
sg19
g3734
sg21
g22
sbag7
(g8
g9
NtRp3961
(dp3962
g12
g13
sg14
S'Luxi Sans'
p3963
sg16
I400
sg17
g13
sg18
g13
sg19
g3735
sg21
g22
sbag7
(g8
g9
NtRp3964
(dp3965
g12
g13
sg14
S'Courier'
p3966
sg16
I700
sg17
g13
sg18
g13
sg19
g3736
sg21
g22
sbag7
(g8
g9
NtRp3967
(dp3968
g12
g13
sg14
S'Courier 10 Pitch'
p3969
sg16
I400
sg17
g13
sg18
g13
sg19
g3737
sg21
g22
sbag7
(g8
g9
NtRp3970
(dp3971
g12
g41
sg14
S'Utopia'
p3972
sg16
I400
sg17
g13
sg18
g13
sg19
g3738
sg21
g22
sbag7
(g8
g9
NtRp3973
(dp3974
g12
g13
sg14
S'Luxi Serif'
p3975
sg16
I700
sg17
g13
sg18
g13
sg19
g3739
sg21
g22
sbag7
(g8
g9
NtRp3976
(dp3977
g12
g41
sg14
S'Luxi Sans'
p3978
sg16
I400
sg17
g13
sg18
g13
sg19
g3740
sg21
g22
sbag7
(g8
g9
NtRp3979
(dp3980
g12
g13
sg14
S'Luxi Sans'
p3981
sg16
I700
sg17
g13
sg18
g13
sg19
g3741
sg21
g22
sbag7
(g8
g9
NtRp3982
(dp3983
g12
g41
sg14
S'Luxi Sans'
p3984
sg16
I700
sg17
g13
sg18
g13
sg19
g3742
sg21
g22
sbag7
(g8
g9
NtRp3985
(dp3986
g12
g41
sg14
S'Courier'
p3987
sg16
I700
sg17
g13
sg18
g13
sg19
g3743
sg21
g22
sbag7
(g8
g9
NtRp3988
(dp3989
g12
g13
sg14
S'Bitstream Charter'
p3990
sg16
I700
sg17
g13
sg18
g13
sg19
g3744
sg21
g22
sbag7
(g8
g9
NtRp3991
(dp3992
g12
g13
sg14
S'Luxi Serif'
p3993
sg16
I400
sg17
g13
sg18
g13
sg19
g3745
sg21
g22
sbag7
(g8
g9
NtRp3994
(dp3995
g12
g41
sg14
S'Courier 10 Pitch'
p3996
sg16
I700
sg17
g13
sg18
g13
sg19
g3746
sg21
g22
sbag7
(g8
g9
NtRp3997
(dp3998
g12
g41
sg14
S'Luxi Mono'
p3999
sg16
I700
sg17
g13
sg18
g13
sg19
g3747
sg21
g22
sbag7
(g8
g9
NtRp4000
(dp4001
g12
g13
sg14
S'Luxi Mono'
p4002
sg16
I700
sg17
g13
sg18
g13
sg19
g3748
sg21
g22
sbag7
(g8
g9
NtRp4003
(dp4004
g12
g41
sg14
S'Luxi Mono'
p4005
sg16
I400
sg17
g13
sg18
g13
sg19
g3749
sg21
g22
sbag7
(g8
g9
NtRp4006
(dp4007
g12
g13
sg14
S'Luxi Mono'
p4008
sg16
I400
sg17
g13
sg18
g13
sg19
g3750
sg21
g22
sbag7
(g8
g9
NtRp4009
(dp4010
g12
g41
sg14
S'Luxi Serif'
p4011
sg16
I400
sg17
g13
sg18
g13
sg19
g3751
sg21
g22
sbag7
(g8
g9
NtRp4012
(dp4013
g12
g41
sg14
S'Utopia'
p4014
sg16
I700
sg17
g13
sg18
g13
sg19
g3752
sg21
g22
sbag7
(g8
g9
NtRp4015
(dp4016
g12
g13
sg14
S'Courier'
p4017
sg16
I400
sg17
g13
sg18
g13
sg19
g3753
sg21
g22
sbag7
(g8
g9
NtRp4018
(dp4019
g12
g41
sg14
S'Courier'
p4020
sg16
I400
sg17
g13
sg18
g13
sg19
g3754
sg21
g22
sbasb.